---
triple:          'arm64-apple-darwin'
binary-path:     '/Users/swrajkantsharma/Desktop/parallelMergeSort/src/app/main'
relocations:
  - { offsetInCU: 0x338F, offset: 0x338F, size: 0x8, addend: 0x0, symName: __ZNSt3__16chronomiB7v160006IxNS_5ratioILl1ELl1000000000EEExS3_EENS_11common_typeIJNS0_8durationIT_T0_EENS5_IT1_T2_EEEE4typeERKS8_RKSB_, symObjAddr: 0x1704, symBinAddr: 0x100002DB4, symSize: 0x70 }
  - { offsetInCU: 0x33FC, offset: 0x33FC, size: 0x8, addend: 0x0, symName: __ZNSt3__16chronomiB7v160006INS0_12steady_clockENS0_8durationIxNS_5ratioILl1ELl1000000000EEEEES6_EENS_11common_typeIJT0_T1_EE4typeERKNS0_10time_pointIT_S8_EERKNSC_ISD_S9_EE, symObjAddr: 0x414, symBinAddr: 0x100001AC4, symSize: 0x58 }
  - { offsetInCU: 0x3451, offset: 0x3451, size: 0x8, addend: 0x0, symName: __ZNSt3__16chrono13duration_castB7v160006INS0_8durationIdNS_5ratioILl1ELl1EEEEExNS3_ILl1ELl1000000000EEEEENS_9enable_ifIXsr13__is_durationIT_EE5valueES8_E4typeERKNS2_IT0_T1_EE, symObjAddr: 0x600, symBinAddr: 0x100001CB0, symSize: 0x30 }
  - { offsetInCU: 0x478D, offset: 0x478D, size: 0x8, addend: 0x0, symName: __ZNSt3__124__put_character_sequenceB7v160006IcNS_11char_traitsIcEEEERNS_13basic_ostreamIT_T0_EES7_PKS4_m, symObjAddr: 0x17F8, symBinAddr: 0x100002EA8, symSize: 0x1EC }
  - { offsetInCU: 0x62F3, offset: 0x62F3, size: 0x8, addend: 0x0, symName: __ZNSt3__1lsB7v160006INS_11char_traitsIcEEEERNS_13basic_ostreamIcT_EES6_PKc, symObjAddr: 0x4A8, symBinAddr: 0x100001B58, symSize: 0x48 }
  - { offsetInCU: 0x6339, offset: 0x6339, size: 0x8, addend: 0x0, symName: __ZNSt3__14endlB7v160006IcNS_11char_traitsIcEEEERNS_13basic_ostreamIT_T0_EES7_, symObjAddr: 0x534, symBinAddr: 0x100001BE4, symSize: 0x58 }
  - { offsetInCU: 0x6379, offset: 0x6379, size: 0x8, addend: 0x0, symName: __ZNSt3__122__make_exception_guardB7v160006INS_6vectorIiNS_9allocatorIiEEE16__destroy_vectorEEENS_28__exception_guard_exceptionsIT_EES7_, symObjAddr: 0x818, symBinAddr: 0x100001EC8, symSize: 0x40 }
  - { offsetInCU: 0x63AE, offset: 0x63AE, size: 0x8, addend: 0x0, symName: __ZNSt3__119__debug_db_insert_cB7v160006INS_6vectorIiNS_9allocatorIiEEEEEEvPT_, symObjAddr: 0x88C, symBinAddr: 0x100001F3C, symSize: 0x10 }
  - { offsetInCU: 0x63DF, offset: 0x63DF, size: 0x8, addend: 0x0, symName: __ZNSt3__119__allocate_at_leastB7v160006INS_9allocatorIiEEEENS_19__allocation_resultINS_16allocator_traitsIT_E7pointerEEERS5_m, symObjAddr: 0xC14, symBinAddr: 0x1000022C4, symSize: 0x40 }
  - { offsetInCU: 0x6422, offset: 0x6422, size: 0x8, addend: 0x0, symName: __ZNSt3__13minB7v160006ImEERKT_S3_S3_, symObjAddr: 0xD50, symBinAddr: 0x100002400, symSize: 0x2C }
  - { offsetInCU: 0x6666, offset: 0x6666, size: 0x8, addend: 0x0, symName: __ZNSt3__13minB7v160006ImNS_6__lessImmEEEERKT_S5_S5_T0_, symObjAddr: 0xDE8, symBinAddr: 0x100002498, symSize: 0x54 }
  - { offsetInCU: 0x66FB, offset: 0x66FB, size: 0x8, addend: 0x0, symName: __ZNSt3__120__throw_length_errorB7v160006EPKc, symObjAddr: 0xEC4, symBinAddr: 0x100002574, symSize: 0x64 }
  - { offsetInCU: 0x6723, offset: 0x6723, size: 0x8, addend: 0x0, symName: __ZNSt3__117__libcpp_allocateB7v160006Emm, symObjAddr: 0x1034, symBinAddr: 0x1000026E4, symSize: 0x28 }
  - { offsetInCU: 0x6760, offset: 0x6760, size: 0x8, addend: 0x0, symName: __ZNSt3__121__libcpp_operator_newB7v160006IJmEEEPvDpT_, symObjAddr: 0x105C, symBinAddr: 0x10000270C, symSize: 0x24 }
  - { offsetInCU: 0x6799, offset: 0x6799, size: 0x8, addend: 0x0, symName: __ZNSt3__112__to_addressB7v160006IiEEPT_S2_, symObjAddr: 0x1178, symBinAddr: 0x100002828, symSize: 0x14 }
  - { offsetInCU: 0x67CE, offset: 0x67CE, size: 0x8, addend: 0x0, symName: __ZNSt3__118__debug_db_erase_cB7v160006INS_6vectorIiNS_9allocatorIiEEEEEEvPT_, symObjAddr: 0x14A4, symBinAddr: 0x100002B54, symSize: 0x10 }
  - { offsetInCU: 0x67FF, offset: 0x67FF, size: 0x8, addend: 0x0, symName: __ZNSt3__119__libcpp_deallocateB7v160006EPvmm, symObjAddr: 0x1644, symBinAddr: 0x100002CF4, symSize: 0x30 }
  - { offsetInCU: 0x6847, offset: 0x6847, size: 0x8, addend: 0x0, symName: __ZNSt3__127__do_deallocate_handle_sizeB7v160006IJEEEvPvmDpT_, symObjAddr: 0x1674, symBinAddr: 0x100002D24, symSize: 0x28 }
  - { offsetInCU: 0x6885, offset: 0x6885, size: 0x8, addend: 0x0, symName: __ZNSt3__124__libcpp_operator_deleteB7v160006IJPvEEEvDpT_, symObjAddr: 0x169C, symBinAddr: 0x100002D4C, symSize: 0x24 }
  - { offsetInCU: 0x68BA, offset: 0x68BA, size: 0x8, addend: 0x0, symName: __ZNSt3__116__pad_and_outputB7v160006IcNS_11char_traitsIcEEEENS_19ostreambuf_iteratorIT_T0_EES6_PKS4_S8_S8_RNS_8ios_baseES4_, symObjAddr: 0x1A34, symBinAddr: 0x1000030E4, symSize: 0x240 }
  - { offsetInCU: 0x6989, offset: 0x6989, size: 0x8, addend: 0x0, symName: __ZNSt3__119__debug_db_insert_cB7v160006INS_12basic_stringIcNS_11char_traitsIcEENS_9allocatorIcEEEEEEvPT_, symObjAddr: 0x1EE8, symBinAddr: 0x100003598, symSize: 0x10 }
  - { offsetInCU: 0x69BA, offset: 0x69BA, size: 0x8, addend: 0x0, symName: __ZNSt3__112__to_addressB7v160006IKcEEPT_S3_, symObjAddr: 0x1FB4, symBinAddr: 0x100003664, symSize: 0x14 }
  - { offsetInCU: 0x6A22, offset: 0x6A22, size: 0x8, addend: 0x0, symName: __ZNSt3__19use_facetB7v160006INS_5ctypeIcEEEERKT_RKNS_6localeE, symObjAddr: 0x2234, symBinAddr: 0x1000038E4, symSize: 0x2C }
  - { offsetInCU: 0x6EF1, offset: 0x6EF1, size: 0x8, addend: 0x0, symName: __ZNSt3__118__constexpr_strlenB7v160006EPKc, symObjAddr: 0x22CC, symBinAddr: 0x10000397C, symSize: 0x24 }
  - { offsetInCU: 0x720B, offset: 0x720B, size: 0x8, addend: 0x0, symName: __ZSt28__throw_bad_array_new_lengthB7v160006v, symObjAddr: 0x1000, symBinAddr: 0x1000026B0, symSize: 0x34 }
  - { offsetInCU: 0x754E, offset: 0x754E, size: 0x8, addend: 0x0, symName: __ZNKSt3__16chrono15__duration_castINS0_8durationIxNS_5ratioILl1ELl1000000000EEEEENS2_IdNS3_ILl1ELl1EEEEES4_Lb1ELb0EEclB7v160006ERKS5_, symObjAddr: 0x630, symBinAddr: 0x100001CE0, symSize: 0x50 }
  - { offsetInCU: 0x992F, offset: 0x992F, size: 0x8, addend: 0x0, symName: _main, symObjAddr: 0x0, symBinAddr: 0x1000016B0, symSize: 0x3BC }
  - { offsetInCU: 0x9A0A, offset: 0x9A0A, size: 0x8, addend: 0x0, symName: __ZNSt3__16vectorIiNS_9allocatorIiEEEC1Em, symObjAddr: 0x3BC, symBinAddr: 0x100001A6C, symSize: 0x34 }
  - { offsetInCU: 0x9A44, offset: 0x9A44, size: 0x8, addend: 0x0, symName: __ZNSt3__16vectorIiNS_9allocatorIiEEEixB7v160006Em, symObjAddr: 0x3F0, symBinAddr: 0x100001AA0, symSize: 0x24 }
  - { offsetInCU: 0x9A7F, offset: 0x9A7F, size: 0x8, addend: 0x0, symName: __ZNSt3__16chrono8durationIdNS_5ratioILl1ELl1EEEEC1B7v160006IxNS2_ILl1ELl1000000000EEEEERKNS1_IT_T0_EEPNS_9enable_ifIXaasr13__no_overflowIS8_S3_EE5valueooL_ZNS_17integral_constantIbLb1EE5valueEEaaeqsr13__no_overflowIS8_S3_E4typeE3denLi1Entsr23treat_as_floating_pointIS7_EE5valueEvE4typeE, symObjAddr: 0x46C, symBinAddr: 0x100001B1C, symSize: 0x3C }
  - { offsetInCU: 0x9AD5, offset: 0x9AD5, size: 0x8, addend: 0x0, symName: __ZNKSt3__16chrono8durationIdNS_5ratioILl1ELl1EEEE5countB7v160006Ev, symObjAddr: 0x4F0, symBinAddr: 0x100001BA0, symSize: 0x18 }
  - { offsetInCU: 0x9AF9, offset: 0x9AF9, size: 0x8, addend: 0x0, symName: __ZNSt3__113basic_ostreamIcNS_11char_traitsIcEEElsB7v160006EPFRS3_S4_E, symObjAddr: 0x508, symBinAddr: 0x100001BB8, symSize: 0x2C }
  - { offsetInCU: 0x9B2C, offset: 0x9B2C, size: 0x8, addend: 0x0, symName: __ZNSt3__16vectorIiNS_9allocatorIiEEED1B7v160006Ev, symObjAddr: 0x58C, symBinAddr: 0x100001C3C, symSize: 0x2C }
  - { offsetInCU: 0x9B55, offset: 0x9B55, size: 0x8, addend: 0x0, symName: __ZNSt3__16chrono8durationIdNS_5ratioILl1ELl1EEEEC2B7v160006IxNS2_ILl1ELl1000000000EEEEERKNS1_IT_T0_EEPNS_9enable_ifIXaasr13__no_overflowIS8_S3_EE5valueooL_ZNS_17integral_constantIbLb1EE5valueEEaaeqsr13__no_overflowIS8_S3_E4typeE3denLi1Entsr23treat_as_floating_pointIS7_EE5valueEvE4typeE, symObjAddr: 0x5B8, symBinAddr: 0x100001C68, symSize: 0x48 }
  - { offsetInCU: 0x9BAB, offset: 0x9BAB, size: 0x8, addend: 0x0, symName: __ZNKSt3__16chrono8durationIxNS_5ratioILl1ELl1000000000EEEE5countB7v160006Ev, symObjAddr: 0x680, symBinAddr: 0x100001D30, symSize: 0x18 }
  - { offsetInCU: 0x9BDA, offset: 0x9BDA, size: 0x8, addend: 0x0, symName: __ZNSt3__16chrono8durationIdNS_5ratioILl1ELl1EEEEC1B7v160006IdEERKT_PNS_9enable_ifIXaasr14is_convertibleIS8_dEE5valueooL_ZNS_17integral_constantIbLb1EE5valueEEntsr23treat_as_floating_pointIS6_EE5valueEvE4typeE, symObjAddr: 0x698, symBinAddr: 0x100001D48, symSize: 0x3C }
  - { offsetInCU: 0x9C26, offset: 0x9C26, size: 0x8, addend: 0x0, symName: __ZNSt3__16chrono8durationIdNS_5ratioILl1ELl1EEEEC2B7v160006IdEERKT_PNS_9enable_ifIXaasr14is_convertibleIS8_dEE5valueooL_ZNS_17integral_constantIbLb1EE5valueEEntsr23treat_as_floating_pointIS6_EE5valueEvE4typeE, symObjAddr: 0x6D4, symBinAddr: 0x100001D84, symSize: 0x28 }
  - { offsetInCU: 0x9C72, offset: 0x9C72, size: 0x8, addend: 0x0, symName: __ZNSt3__16vectorIiNS_9allocatorIiEEEC2Em, symObjAddr: 0x6FC, symBinAddr: 0x100001DAC, symSize: 0xE0 }
  - { offsetInCU: 0x9CCB, offset: 0x9CCB, size: 0x8, addend: 0x0, symName: __ZNSt3__117__compressed_pairIPiNS_9allocatorIiEEEC1B7v160006IDnNS_18__default_init_tagEEEOT_OT0_, symObjAddr: 0x7DC, symBinAddr: 0x100001E8C, symSize: 0x3C }
  - { offsetInCU: 0x9D22, offset: 0x9D22, size: 0x8, addend: 0x0, symName: __ZNSt3__16vectorIiNS_9allocatorIiEEE16__destroy_vectorC1ERS3_, symObjAddr: 0x858, symBinAddr: 0x100001F08, symSize: 0x34 }
  - { offsetInCU: 0x9D59, offset: 0x9D59, size: 0x8, addend: 0x0, symName: __ZNSt3__16vectorIiNS_9allocatorIiEEE11__vallocateB7v160006Em, symObjAddr: 0x89C, symBinAddr: 0x100001F4C, symSize: 0xAC }
  - { offsetInCU: 0x9D9C, offset: 0x9D9C, size: 0x8, addend: 0x0, symName: __ZNSt3__16vectorIiNS_9allocatorIiEEE18__construct_at_endEm, symObjAddr: 0x948, symBinAddr: 0x100001FF8, symSize: 0xC8 }
  - { offsetInCU: 0x9E0E, offset: 0x9E0E, size: 0x8, addend: 0x0, symName: __ZNSt3__128__exception_guard_exceptionsINS_6vectorIiNS_9allocatorIiEEE16__destroy_vectorEE10__completeB7v160006Ev, symObjAddr: 0xA10, symBinAddr: 0x1000020C0, symSize: 0x1C }
  - { offsetInCU: 0x9E33, offset: 0x9E33, size: 0x8, addend: 0x0, symName: __ZNSt3__128__exception_guard_exceptionsINS_6vectorIiNS_9allocatorIiEEE16__destroy_vectorEED1B7v160006Ev, symObjAddr: 0xA2C, symBinAddr: 0x1000020DC, symSize: 0x2C }
  - { offsetInCU: 0x9E5C, offset: 0x9E5C, size: 0x8, addend: 0x0, symName: __ZNSt3__117__compressed_pairIPiNS_9allocatorIiEEEC2B7v160006IDnNS_18__default_init_tagEEEOT_OT0_, symObjAddr: 0xA58, symBinAddr: 0x100002108, symSize: 0x40 }
  - { offsetInCU: 0x9EB3, offset: 0x9EB3, size: 0x8, addend: 0x0, symName: __ZNSt3__122__compressed_pair_elemIPiLi0ELb0EEC2B7v160006IDnvEEOT_, symObjAddr: 0xA98, symBinAddr: 0x100002148, symSize: 0x1C }
  - { offsetInCU: 0x9EF4, offset: 0x9EF4, size: 0x8, addend: 0x0, symName: __ZNSt3__122__compressed_pair_elemINS_9allocatorIiEELi1ELb1EEC2B7v160006ENS_18__default_init_tagE, symObjAddr: 0xAB4, symBinAddr: 0x100002164, symSize: 0x2C }
  - { offsetInCU: 0x9F28, offset: 0x9F28, size: 0x8, addend: 0x0, symName: __ZNSt3__19allocatorIiEC2B7v160006Ev, symObjAddr: 0xAE0, symBinAddr: 0x100002190, symSize: 0x2C }
  - { offsetInCU: 0x9F51, offset: 0x9F51, size: 0x8, addend: 0x0, symName: __ZNSt3__116__non_trivial_ifILb1ENS_9allocatorIiEEEC2B7v160006Ev, symObjAddr: 0xB0C, symBinAddr: 0x1000021BC, symSize: 0x14 }
  - { offsetInCU: 0x9F7A, offset: 0x9F7A, size: 0x8, addend: 0x0, symName: __ZNSt3__128__exception_guard_exceptionsINS_6vectorIiNS_9allocatorIiEEE16__destroy_vectorEEC1B7v160006ES5_, symObjAddr: 0xB20, symBinAddr: 0x1000021D0, symSize: 0x34 }
  - { offsetInCU: 0x9FB1, offset: 0x9FB1, size: 0x8, addend: 0x0, symName: __ZNSt3__128__exception_guard_exceptionsINS_6vectorIiNS_9allocatorIiEEE16__destroy_vectorEEC2B7v160006ES5_, symObjAddr: 0xB54, symBinAddr: 0x100002204, symSize: 0x24 }
  - { offsetInCU: 0x9FE8, offset: 0x9FE8, size: 0x8, addend: 0x0, symName: __ZNSt3__16vectorIiNS_9allocatorIiEEE16__destroy_vectorC2ERS3_, symObjAddr: 0xB78, symBinAddr: 0x100002228, symSize: 0x20 }
  - { offsetInCU: 0xA020, offset: 0xA020, size: 0x8, addend: 0x0, symName: __ZNKSt3__16vectorIiNS_9allocatorIiEEE8max_sizeEv, symObjAddr: 0xB98, symBinAddr: 0x100002248, symSize: 0x60 }
  - { offsetInCU: 0xA046, offset: 0xA046, size: 0x8, addend: 0x0, symName: __ZNKSt3__16vectorIiNS_9allocatorIiEEE20__throw_length_errorB7v160006Ev, symObjAddr: 0xBF8, symBinAddr: 0x1000022A8, symSize: 0x1C }
  - { offsetInCU: 0xA06A, offset: 0xA06A, size: 0x8, addend: 0x0, symName: __ZNSt3__16vectorIiNS_9allocatorIiEEE7__allocB7v160006Ev, symObjAddr: 0xC54, symBinAddr: 0x100002304, symSize: 0x28 }
  - { offsetInCU: 0xA08E, offset: 0xA08E, size: 0x8, addend: 0x0, symName: __ZNSt3__16vectorIiNS_9allocatorIiEEE9__end_capB7v160006Ev, symObjAddr: 0xC7C, symBinAddr: 0x10000232C, symSize: 0x28 }
  - { offsetInCU: 0xA0B2, offset: 0xA0B2, size: 0x8, addend: 0x0, symName: __ZNKSt3__16vectorIiNS_9allocatorIiEEE14__annotate_newB7v160006Em, symObjAddr: 0xCA4, symBinAddr: 0x100002354, symSize: 0xAC }
  - { offsetInCU: 0xA0F0, offset: 0xA0F0, size: 0x8, addend: 0x0, symName: __ZNSt3__116allocator_traitsINS_9allocatorIiEEE8max_sizeB7v160006IS2_vEEmRKS2_, symObjAddr: 0xD7C, symBinAddr: 0x10000242C, symSize: 0x24 }
  - { offsetInCU: 0xA11D, offset: 0xA11D, size: 0x8, addend: 0x0, symName: __ZNKSt3__16vectorIiNS_9allocatorIiEEE7__allocB7v160006Ev, symObjAddr: 0xDA0, symBinAddr: 0x100002450, symSize: 0x28 }
  - { offsetInCU: 0xA142, offset: 0xA142, size: 0x8, addend: 0x0, symName: __ZNSt3__114numeric_limitsIlE3maxB7v160006Ev, symObjAddr: 0xDC8, symBinAddr: 0x100002478, symSize: 0x14 }
  - { offsetInCU: 0xA16A, offset: 0xA16A, size: 0x8, addend: 0x0, symName: __ZNKSt3__16__lessImmEclB7v160006ERKmS3_, symObjAddr: 0xE3C, symBinAddr: 0x1000024EC, symSize: 0x34 }
  - { offsetInCU: 0xA1AB, offset: 0xA1AB, size: 0x8, addend: 0x0, symName: __ZNKSt3__19allocatorIiE8max_sizeB7v160006Ev, symObjAddr: 0xE70, symBinAddr: 0x100002520, symSize: 0x14 }
  - { offsetInCU: 0xA1CF, offset: 0xA1CF, size: 0x8, addend: 0x0, symName: __ZNKSt3__117__compressed_pairIPiNS_9allocatorIiEEE6secondB7v160006Ev, symObjAddr: 0xE84, symBinAddr: 0x100002534, symSize: 0x24 }
  - { offsetInCU: 0xA1F4, offset: 0xA1F4, size: 0x8, addend: 0x0, symName: __ZNKSt3__122__compressed_pair_elemINS_9allocatorIiEELi1ELb1EE5__getB7v160006Ev, symObjAddr: 0xEA8, symBinAddr: 0x100002558, symSize: 0x14 }
  - { offsetInCU: 0xA219, offset: 0xA219, size: 0x8, addend: 0x0, symName: __ZNSt3__123__libcpp_numeric_limitsIlLb1EE3maxB7v160006Ev, symObjAddr: 0xEBC, symBinAddr: 0x10000256C, symSize: 0x8 }
  - { offsetInCU: 0xA22D, offset: 0xA22D, size: 0x8, addend: 0x0, symName: __ZNSt12length_errorC1B7v160006EPKc, symObjAddr: 0xF28, symBinAddr: 0x1000025D8, symSize: 0x34 }
  - { offsetInCU: 0xA264, offset: 0xA264, size: 0x8, addend: 0x0, symName: __ZNSt12length_errorC2B7v160006EPKc, symObjAddr: 0xF5C, symBinAddr: 0x10000260C, symSize: 0x4C }
  - { offsetInCU: 0xA29A, offset: 0xA29A, size: 0x8, addend: 0x0, symName: __ZNSt3__19allocatorIiE8allocateB7v160006Em, symObjAddr: 0xFA8, symBinAddr: 0x100002658, symSize: 0x58 }
  - { offsetInCU: 0xA2CC, offset: 0xA2CC, size: 0x8, addend: 0x0, symName: __ZNSt3__117__compressed_pairIPiNS_9allocatorIiEEE6secondB7v160006Ev, symObjAddr: 0x1080, symBinAddr: 0x100002730, symSize: 0x24 }
  - { offsetInCU: 0xA2F1, offset: 0xA2F1, size: 0x8, addend: 0x0, symName: __ZNSt3__122__compressed_pair_elemINS_9allocatorIiEELi1ELb1EE5__getB7v160006Ev, symObjAddr: 0x10A4, symBinAddr: 0x100002754, symSize: 0x14 }
  - { offsetInCU: 0xA315, offset: 0xA315, size: 0x8, addend: 0x0, symName: __ZNSt3__117__compressed_pairIPiNS_9allocatorIiEEE5firstB7v160006Ev, symObjAddr: 0x10B8, symBinAddr: 0x100002768, symSize: 0x24 }
  - { offsetInCU: 0xA33A, offset: 0xA33A, size: 0x8, addend: 0x0, symName: __ZNSt3__122__compressed_pair_elemIPiLi0ELb0EE5__getB7v160006Ev, symObjAddr: 0x10DC, symBinAddr: 0x10000278C, symSize: 0x14 }
  - { offsetInCU: 0xA35F, offset: 0xA35F, size: 0x8, addend: 0x0, symName: __ZNKSt3__16vectorIiNS_9allocatorIiEEE31__annotate_contiguous_containerB7v160006EPKvS5_S5_S5_, symObjAddr: 0x10F0, symBinAddr: 0x1000027A0, symSize: 0x20 }
  - { offsetInCU: 0xA3B3, offset: 0xA3B3, size: 0x8, addend: 0x0, symName: __ZNKSt3__16vectorIiNS_9allocatorIiEEE4dataB7v160006Ev, symObjAddr: 0x1110, symBinAddr: 0x1000027C0, symSize: 0x28 }
  - { offsetInCU: 0xA3D7, offset: 0xA3D7, size: 0x8, addend: 0x0, symName: __ZNKSt3__16vectorIiNS_9allocatorIiEEE8capacityB7v160006Ev, symObjAddr: 0x1138, symBinAddr: 0x1000027E8, symSize: 0x40 }
  - { offsetInCU: 0xA3FB, offset: 0xA3FB, size: 0x8, addend: 0x0, symName: __ZNKSt3__16vectorIiNS_9allocatorIiEEE9__end_capB7v160006Ev, symObjAddr: 0x118C, symBinAddr: 0x10000283C, symSize: 0x28 }
  - { offsetInCU: 0xA41F, offset: 0xA41F, size: 0x8, addend: 0x0, symName: __ZNKSt3__117__compressed_pairIPiNS_9allocatorIiEEE5firstB7v160006Ev, symObjAddr: 0x11B4, symBinAddr: 0x100002864, symSize: 0x24 }
  - { offsetInCU: 0xA444, offset: 0xA444, size: 0x8, addend: 0x0, symName: __ZNKSt3__122__compressed_pair_elemIPiLi0ELb0EE5__getB7v160006Ev, symObjAddr: 0x11D8, symBinAddr: 0x100002888, symSize: 0x14 }
  - { offsetInCU: 0xA482, offset: 0xA482, size: 0x8, addend: 0x0, symName: __ZNSt3__16vectorIiNS_9allocatorIiEEE21_ConstructTransactionC1B7v160006ERS3_m, symObjAddr: 0x11EC, symBinAddr: 0x10000289C, symSize: 0x3C }
  - { offsetInCU: 0xA4C9, offset: 0xA4C9, size: 0x8, addend: 0x0, symName: __ZNSt3__116allocator_traitsINS_9allocatorIiEEE9constructB7v160006IiJEvEEvRS2_PT_DpOT0_, symObjAddr: 0x1228, symBinAddr: 0x1000028D8, symSize: 0x2C }
  - { offsetInCU: 0xA50B, offset: 0xA50B, size: 0x8, addend: 0x0, symName: __ZNSt3__16vectorIiNS_9allocatorIiEEE21_ConstructTransactionD1B7v160006Ev, symObjAddr: 0x1254, symBinAddr: 0x100002904, symSize: 0x2C }
  - { offsetInCU: 0xA534, offset: 0xA534, size: 0x8, addend: 0x0, symName: __ZNSt3__16vectorIiNS_9allocatorIiEEE21_ConstructTransactionC2B7v160006ERS3_m, symObjAddr: 0x1280, symBinAddr: 0x100002930, symSize: 0x44 }
  - { offsetInCU: 0xA57B, offset: 0xA57B, size: 0x8, addend: 0x0, symName: __ZNSt3__19allocatorIiE9constructB7v160006IiJEEEvPT_DpOT0_, symObjAddr: 0x12C4, symBinAddr: 0x100002974, symSize: 0x1C }
  - { offsetInCU: 0xA5BC, offset: 0xA5BC, size: 0x8, addend: 0x0, symName: __ZNSt3__16vectorIiNS_9allocatorIiEEE21_ConstructTransactionD2B7v160006Ev, symObjAddr: 0x12E0, symBinAddr: 0x100002990, symSize: 0x20 }
  - { offsetInCU: 0xA5E5, offset: 0xA5E5, size: 0x8, addend: 0x0, symName: __ZNSt3__128__exception_guard_exceptionsINS_6vectorIiNS_9allocatorIiEEE16__destroy_vectorEED2B7v160006Ev, symObjAddr: 0x1300, symBinAddr: 0x1000029B0, symSize: 0x50 }
  - { offsetInCU: 0xA60D, offset: 0xA60D, size: 0x8, addend: 0x0, symName: __ZNSt3__16vectorIiNS_9allocatorIiEEE16__destroy_vectorclB7v160006Ev, symObjAddr: 0x1350, symBinAddr: 0x100002A00, symSize: 0x9C }
  - { offsetInCU: 0xA631, offset: 0xA631, size: 0x8, addend: 0x0, symName: __ZNKSt3__16vectorIiNS_9allocatorIiEEE17__annotate_deleteB7v160006Ev, symObjAddr: 0x13EC, symBinAddr: 0x100002A9C, symSize: 0xB8 }
  - { offsetInCU: 0xA655, offset: 0xA655, size: 0x8, addend: 0x0, symName: __ZNSt3__16vectorIiNS_9allocatorIiEEE7__clearB7v160006Ev, symObjAddr: 0x14B4, symBinAddr: 0x100002B64, symSize: 0x28 }
  - { offsetInCU: 0xA67A, offset: 0xA67A, size: 0x8, addend: 0x0, symName: __ZNSt3__116allocator_traitsINS_9allocatorIiEEE10deallocateB7v160006ERS2_Pim, symObjAddr: 0x14DC, symBinAddr: 0x100002B8C, symSize: 0x34 }
  - { offsetInCU: 0xA6BC, offset: 0xA6BC, size: 0x8, addend: 0x0, symName: __ZNKSt3__16vectorIiNS_9allocatorIiEEE4sizeB7v160006Ev, symObjAddr: 0x1510, symBinAddr: 0x100002BC0, symSize: 0x28 }
  - { offsetInCU: 0xA6E0, offset: 0xA6E0, size: 0x8, addend: 0x0, symName: __ZNSt3__16vectorIiNS_9allocatorIiEEE22__base_destruct_at_endB7v160006EPi, symObjAddr: 0x1538, symBinAddr: 0x100002BE8, symSize: 0x8C }
  - { offsetInCU: 0xA723, offset: 0xA723, size: 0x8, addend: 0x0, symName: __ZNSt3__116allocator_traitsINS_9allocatorIiEEE7destroyB7v160006IivEEvRS2_PT_, symObjAddr: 0x15C4, symBinAddr: 0x100002C74, symSize: 0x2C }
  - { offsetInCU: 0xA760, offset: 0xA760, size: 0x8, addend: 0x0, symName: __ZNSt3__19allocatorIiE7destroyB7v160006EPi, symObjAddr: 0x15F0, symBinAddr: 0x100002CA0, symSize: 0x14 }
  - { offsetInCU: 0xA792, offset: 0xA792, size: 0x8, addend: 0x0, symName: __ZNSt3__19allocatorIiE10deallocateB7v160006EPim, symObjAddr: 0x1604, symBinAddr: 0x100002CB4, symSize: 0x40 }
  - { offsetInCU: 0xA7D3, offset: 0xA7D3, size: 0x8, addend: 0x0, symName: __ZNSt3__16vectorIiNS_9allocatorIiEEED2B7v160006Ev, symObjAddr: 0x16C0, symBinAddr: 0x100002D70, symSize: 0x44 }
  - { offsetInCU: 0xA81A, offset: 0xA81A, size: 0x8, addend: 0x0, symName: __ZNKSt3__16chrono10time_pointINS0_12steady_clockENS0_8durationIxNS_5ratioILl1ELl1000000000EEEEEE16time_since_epochB7v160006Ev, symObjAddr: 0x1774, symBinAddr: 0x100002E24, symSize: 0x20 }
  - { offsetInCU: 0xA849, offset: 0xA849, size: 0x8, addend: 0x0, symName: __ZNSt3__16chrono8durationIxNS_5ratioILl1ELl1000000000EEEEC1B7v160006IxEERKT_PNS_9enable_ifIXaasr14is_convertibleIS8_xEE5valueooL_ZNS_17integral_constantIbLb0EE5valueEEntsr23treat_as_floating_pointIS6_EE5valueEvE4typeE, symObjAddr: 0x1794, symBinAddr: 0x100002E44, symSize: 0x3C }
  - { offsetInCU: 0xA895, offset: 0xA895, size: 0x8, addend: 0x0, symName: __ZNSt3__16chrono8durationIxNS_5ratioILl1ELl1000000000EEEEC2B7v160006IxEERKT_PNS_9enable_ifIXaasr14is_convertibleIS8_xEE5valueooL_ZNS_17integral_constantIbLb0EE5valueEEntsr23treat_as_floating_pointIS6_EE5valueEvE4typeE, symObjAddr: 0x17D0, symBinAddr: 0x100002E80, symSize: 0x28 }
  - { offsetInCU: 0xA8E1, offset: 0xA8E1, size: 0x8, addend: 0x0, symName: __ZNSt3__111char_traitsIcE6lengthEPKc, symObjAddr: 0x19E4, symBinAddr: 0x100003094, symSize: 0x34 }
  - { offsetInCU: 0xA922, offset: 0xA922, size: 0x8, addend: 0x0, symName: __ZNKSt3__113basic_ostreamIcNS_11char_traitsIcEEE6sentrycvbB7v160006Ev, symObjAddr: 0x1A18, symBinAddr: 0x1000030C8, symSize: 0x1C }
  - { offsetInCU: 0xA947, offset: 0xA947, size: 0x8, addend: 0x0, symName: __ZNSt3__119ostreambuf_iteratorIcNS_11char_traitsIcEEEC1B7v160006ERNS_13basic_ostreamIcS2_EE, symObjAddr: 0x1C74, symBinAddr: 0x100003324, symSize: 0x34 }
  - { offsetInCU: 0xA97E, offset: 0xA97E, size: 0x8, addend: 0x0, symName: __ZNKSt3__18ios_base5flagsB7v160006Ev, symObjAddr: 0x1CA8, symBinAddr: 0x100003358, symSize: 0x18 }
  - { offsetInCU: 0xA9A5, offset: 0xA9A5, size: 0x8, addend: 0x0, symName: __ZNKSt3__19basic_iosIcNS_11char_traitsIcEEE4fillB7v160006Ev, symObjAddr: 0x1CC0, symBinAddr: 0x100003370, symSize: 0x64 }
  - { offsetInCU: 0xA9CC, offset: 0xA9CC, size: 0x8, addend: 0x0, symName: __ZNKSt3__119ostreambuf_iteratorIcNS_11char_traitsIcEEE6failedB7v160006Ev, symObjAddr: 0x1D24, symBinAddr: 0x1000033D4, symSize: 0x24 }
  - { offsetInCU: 0xA9F0, offset: 0xA9F0, size: 0x8, addend: 0x0, symName: __ZNSt3__19basic_iosIcNS_11char_traitsIcEEE8setstateB7v160006Ej, symObjAddr: 0x1D48, symBinAddr: 0x1000033F8, symSize: 0x2C }
  - { offsetInCU: 0xAA24, offset: 0xAA24, size: 0x8, addend: 0x0, symName: __ZNKSt3__18ios_base5widthB7v160006Ev, symObjAddr: 0x1D74, symBinAddr: 0x100003424, symSize: 0x18 }
  - { offsetInCU: 0xAA4A, offset: 0xAA4A, size: 0x8, addend: 0x0, symName: __ZNSt3__115basic_streambufIcNS_11char_traitsIcEEE5sputnB7v160006EPKcl, symObjAddr: 0x1D8C, symBinAddr: 0x10000343C, symSize: 0x3C }
  - { offsetInCU: 0xAA8B, offset: 0xAA8B, size: 0x8, addend: 0x0, symName: __ZNSt3__112basic_stringIcNS_11char_traitsIcEENS_9allocatorIcEEEC1B7v160006Emc, symObjAddr: 0x1DC8, symBinAddr: 0x100003478, symSize: 0x3C }
  - { offsetInCU: 0xAAD1, offset: 0xAAD1, size: 0x8, addend: 0x0, symName: __ZNKSt3__112basic_stringIcNS_11char_traitsIcEENS_9allocatorIcEEE4dataB7v160006Ev, symObjAddr: 0x1E04, symBinAddr: 0x1000034B4, symSize: 0x28 }
  - { offsetInCU: 0xAAF6, offset: 0xAAF6, size: 0x8, addend: 0x0, symName: __ZNSt3__18ios_base5widthB7v160006El, symObjAddr: 0x1E2C, symBinAddr: 0x1000034DC, symSize: 0x2C }
  - { offsetInCU: 0xAB3B, offset: 0xAB3B, size: 0x8, addend: 0x0, symName: __ZNSt3__112basic_stringIcNS_11char_traitsIcEENS_9allocatorIcEEEC2B7v160006Emc, symObjAddr: 0x1E58, symBinAddr: 0x100003508, symSize: 0x54 }
  - { offsetInCU: 0xAB82, offset: 0xAB82, size: 0x8, addend: 0x0, symName: __ZNSt3__117__compressed_pairINS_12basic_stringIcNS_11char_traitsIcEENS_9allocatorIcEEE5__repES5_EC1B7v160006INS_18__default_init_tagESA_EEOT_OT0_, symObjAddr: 0x1EAC, symBinAddr: 0x10000355C, symSize: 0x3C }
  - { offsetInCU: 0xABD9, offset: 0xABD9, size: 0x8, addend: 0x0, symName: __ZNSt3__117__compressed_pairINS_12basic_stringIcNS_11char_traitsIcEENS_9allocatorIcEEE5__repES5_EC2B7v160006INS_18__default_init_tagESA_EEOT_OT0_, symObjAddr: 0x1EF8, symBinAddr: 0x1000035A8, symSize: 0x3C }
  - { offsetInCU: 0xAC30, offset: 0xAC30, size: 0x8, addend: 0x0, symName: __ZNSt3__122__compressed_pair_elemINS_12basic_stringIcNS_11char_traitsIcEENS_9allocatorIcEEE5__repELi0ELb0EEC2B7v160006ENS_18__default_init_tagE, symObjAddr: 0x1F34, symBinAddr: 0x1000035E4, symSize: 0x14 }
  - { offsetInCU: 0xAC64, offset: 0xAC64, size: 0x8, addend: 0x0, symName: __ZNSt3__122__compressed_pair_elemINS_9allocatorIcEELi1ELb1EEC2B7v160006ENS_18__default_init_tagE, symObjAddr: 0x1F48, symBinAddr: 0x1000035F8, symSize: 0x2C }
  - { offsetInCU: 0xAC98, offset: 0xAC98, size: 0x8, addend: 0x0, symName: __ZNSt3__19allocatorIcEC2B7v160006Ev, symObjAddr: 0x1F74, symBinAddr: 0x100003624, symSize: 0x2C }
  - { offsetInCU: 0xACC1, offset: 0xACC1, size: 0x8, addend: 0x0, symName: __ZNSt3__116__non_trivial_ifILb1ENS_9allocatorIcEEEC2B7v160006Ev, symObjAddr: 0x1FA0, symBinAddr: 0x100003650, symSize: 0x14 }
  - { offsetInCU: 0xACE9, offset: 0xACE9, size: 0x8, addend: 0x0, symName: __ZNKSt3__112basic_stringIcNS_11char_traitsIcEENS_9allocatorIcEEE13__get_pointerB7v160006Ev, symObjAddr: 0x1FC8, symBinAddr: 0x100003678, symSize: 0x54 }
  - { offsetInCU: 0xAD0D, offset: 0xAD0D, size: 0x8, addend: 0x0, symName: __ZNKSt3__112basic_stringIcNS_11char_traitsIcEENS_9allocatorIcEEE9__is_longB7v160006Ev, symObjAddr: 0x201C, symBinAddr: 0x1000036CC, symSize: 0x38 }
  - { offsetInCU: 0xAD31, offset: 0xAD31, size: 0x8, addend: 0x0, symName: __ZNKSt3__112basic_stringIcNS_11char_traitsIcEENS_9allocatorIcEEE18__get_long_pointerB7v160006Ev, symObjAddr: 0x2054, symBinAddr: 0x100003704, symSize: 0x28 }
  - { offsetInCU: 0xAD55, offset: 0xAD55, size: 0x8, addend: 0x0, symName: __ZNKSt3__112basic_stringIcNS_11char_traitsIcEENS_9allocatorIcEEE19__get_short_pointerB7v160006Ev, symObjAddr: 0x207C, symBinAddr: 0x10000372C, symSize: 0x28 }
  - { offsetInCU: 0xAD79, offset: 0xAD79, size: 0x8, addend: 0x0, symName: __ZNKSt3__117__compressed_pairINS_12basic_stringIcNS_11char_traitsIcEENS_9allocatorIcEEE5__repES5_E5firstB7v160006Ev, symObjAddr: 0x20A4, symBinAddr: 0x100003754, symSize: 0x24 }
  - { offsetInCU: 0xAD9E, offset: 0xAD9E, size: 0x8, addend: 0x0, symName: __ZNKSt3__122__compressed_pair_elemINS_12basic_stringIcNS_11char_traitsIcEENS_9allocatorIcEEE5__repELi0ELb0EE5__getB7v160006Ev, symObjAddr: 0x20C8, symBinAddr: 0x100003778, symSize: 0x14 }
  - { offsetInCU: 0xADC3, offset: 0xADC3, size: 0x8, addend: 0x0, symName: __ZNSt3__114pointer_traitsIPKcE10pointer_toB7v160006ERS1_, symObjAddr: 0x20DC, symBinAddr: 0x10000378C, symSize: 0x14 }
  - { offsetInCU: 0xADE6, offset: 0xADE6, size: 0x8, addend: 0x0, symName: __ZNSt3__119ostreambuf_iteratorIcNS_11char_traitsIcEEEC2B7v160006ERNS_13basic_ostreamIcS2_EE, symObjAddr: 0x20F0, symBinAddr: 0x1000037A0, symSize: 0x54 }
  - { offsetInCU: 0xAE1D, offset: 0xAE1D, size: 0x8, addend: 0x0, symName: __ZNKSt3__19basic_iosIcNS_11char_traitsIcEEE5rdbufB7v160006Ev, symObjAddr: 0x2144, symBinAddr: 0x1000037F4, symSize: 0x24 }
  - { offsetInCU: 0xAE44, offset: 0xAE44, size: 0x8, addend: 0x0, symName: __ZNKSt3__18ios_base5rdbufB7v160006Ev, symObjAddr: 0x2168, symBinAddr: 0x100003818, symSize: 0x18 }
  - { offsetInCU: 0xAE69, offset: 0xAE69, size: 0x8, addend: 0x0, symName: __ZNSt3__111char_traitsIcE11eq_int_typeEii, symObjAddr: 0x2180, symBinAddr: 0x100003830, symSize: 0x28 }
  - { offsetInCU: 0xAE9A, offset: 0xAE9A, size: 0x8, addend: 0x0, symName: __ZNSt3__111char_traitsIcE3eofEv, symObjAddr: 0x21A8, symBinAddr: 0x100003858, symSize: 0x8 }
  - { offsetInCU: 0xAEAE, offset: 0xAEAE, size: 0x8, addend: 0x0, symName: __ZNKSt3__19basic_iosIcNS_11char_traitsIcEEE5widenB7v160006Ec, symObjAddr: 0x21B0, symBinAddr: 0x100003860, symSize: 0x84 }
  - { offsetInCU: 0xAF1A, offset: 0xAF1A, size: 0x8, addend: 0x0, symName: __ZNKSt3__15ctypeIcE5widenB7v160006Ec, symObjAddr: 0x2260, symBinAddr: 0x100003910, symSize: 0x38 }
  - { offsetInCU: 0xAF4E, offset: 0xAF4E, size: 0x8, addend: 0x0, symName: __ZNSt3__18ios_base8setstateB7v160006Ej, symObjAddr: 0x2298, symBinAddr: 0x100003948, symSize: 0x34 }
  - { offsetInCU: 0x3A20, offset: 0xEB35, size: 0x8, addend: 0x0, symName: __ZNSt3__14sortB7v160006INS_11__wrap_iterIPiEEEEvT_S4_, symObjAddr: 0x494, symBinAddr: 0x100003E34, symSize: 0x3C }
  - { offsetInCU: 0x3C84, offset: 0xED99, size: 0x8, addend: 0x0, symName: __ZNSt3__14sortB7v160006INS_11__wrap_iterIPiEENS_6__lessIiiEEEEvT_S6_T0_, symObjAddr: 0x834, symBinAddr: 0x10000415C, symSize: 0x40 }
  - { offsetInCU: 0x3CDE, offset: 0xEDF3, size: 0x8, addend: 0x0, symName: __ZNSt3__111__sort_implB7v160006INS_17_ClassicAlgPolicyENS_11__wrap_iterIPiEENS_6__lessIiiEEEEvT0_S7_RT1_, symObjAddr: 0x874, symBinAddr: 0x10000419C, symSize: 0x84 }
  - { offsetInCU: 0x3D86, offset: 0xEE9B, size: 0x8, addend: 0x0, symName: __ZNSt3__123__debug_randomize_rangeB7v160006INS_17_ClassicAlgPolicyENS_11__wrap_iterIPiEES4_EEvT0_T1_, symObjAddr: 0x8F8, symBinAddr: 0x100004220, symSize: 0x14 }
  - { offsetInCU: 0x3DD7, offset: 0xEEEC, size: 0x8, addend: 0x0, symName: __ZNSt3__113__unwrap_iterB7v160006INS_11__wrap_iterIPiEENS_18__unwrap_iter_implIS3_Lb1EEELi0EEEDTclsrT0_8__unwrapclsr3stdE7declvalIT_EEEES7_, symObjAddr: 0x90C, symBinAddr: 0x100004234, symSize: 0x2C }
  - { offsetInCU: 0x3E6F, offset: 0xEF84, size: 0x8, addend: 0x0, symName: __ZNSt3__112__to_addressB7v160006INS_11__wrap_iterIPiEEvEENS_5decayIDTclsr19__to_address_helperIT_EE6__callclsr3stdE7declvalIRKS5_EEEEE4typeES7_, symObjAddr: 0x960, symBinAddr: 0x100004288, symSize: 0x24 }
  - { offsetInCU: 0x436D, offset: 0xF482, size: 0x8, addend: 0x0, symName: __ZNSt3__122__libcpp_thread_createB7v160006EPP17_opaque_pthread_tPFPvS3_ES3_, symObjAddr: 0xBF8, symBinAddr: 0x10000450C, symSize: 0x38 }
  - { offsetInCU: 0x43B9, offset: 0xF4CE, size: 0x8, addend: 0x0, symName: '__ZNSt3__114__thread_proxyB7v160006INS_5tupleIJNS_10unique_ptrINS_15__thread_structENS_14default_deleteIS3_EEEEZN17ParallelMergeSort13recursiveSortEiiE3$_0EEEEEPvSA_', symObjAddr: 0xC30, symBinAddr: 0x100004544, symSize: 0x90 }
  - { offsetInCU: 0x451C, offset: 0xF631, size: 0x8, addend: 0x0, symName: '__ZNSt3__13getB7v160006ILm0EJNS_10unique_ptrINS_15__thread_structENS_14default_deleteIS2_EEEEZN17ParallelMergeSort13recursiveSortEiiE3$_0EEERNS_13tuple_elementIXT_ENS_5tupleIJDpT0_EEEE4typeERSC_', symObjAddr: 0x12F0, symBinAddr: 0x100004BF8, symSize: 0x24 }
  - { offsetInCU: 0x4565, offset: 0xF67A, size: 0x8, addend: 0x0, symName: '__ZNSt3__116__thread_executeB7v160006INS_10unique_ptrINS_15__thread_structENS_14default_deleteIS2_EEEEZN17ParallelMergeSort13recursiveSortEiiE3$_0JEJEEEvRNS_5tupleIJT_T0_DpT1_EEENS_15__tuple_indicesIJXspT2_EEEE', symObjAddr: 0x1314, symBinAddr: 0x100004C1C, symSize: 0x28 }
  - { offsetInCU: 0x45B8, offset: 0xF6CD, size: 0x8, addend: 0x0, symName: __ZNSt3__116__libcpp_tls_setB7v160006EmPv, symObjAddr: 0x133C, symBinAddr: 0x100004C44, symSize: 0x2C }
  - { offsetInCU: 0x45F5, offset: 0xF70A, size: 0x8, addend: 0x0, symName: '__ZNSt3__18__invokeB7v160006IZN17ParallelMergeSort13recursiveSortEiiE3$_0JEEEDTclclsr3stdE7declvalIT_EEspclsr3stdE7declvalIT0_EEEEOS3_DpOS4_', symObjAddr: 0x137C, symBinAddr: 0x100004C84, symSize: 0x24 }
  - { offsetInCU: 0x462E, offset: 0xF743, size: 0x8, addend: 0x0, symName: '__ZNSt3__13getB7v160006ILm1EJNS_10unique_ptrINS_15__thread_structENS_14default_deleteIS2_EEEEZN17ParallelMergeSort13recursiveSortEiiE3$_0EEERNS_13tuple_elementIXT_ENS_5tupleIJDpT0_EEEE4typeERSC_', symObjAddr: 0x13A0, symBinAddr: 0x100004CA8, symSize: 0x28 }
  - { offsetInCU: 0x4A96, offset: 0xFBAB, size: 0x8, addend: 0x0, symName: '__ZNSt3__114__thread_proxyB7v160006INS_5tupleIJNS_10unique_ptrINS_15__thread_structENS_14default_deleteIS3_EEEEZN17ParallelMergeSort13recursiveSortEiiE3$_1EEEEEPvSA_', symObjAddr: 0x1930, symBinAddr: 0x100005238, symSize: 0x90 }
  - { offsetInCU: 0x4AF7, offset: 0xFC0C, size: 0x8, addend: 0x0, symName: '__ZNSt3__13getB7v160006ILm0EJNS_10unique_ptrINS_15__thread_structENS_14default_deleteIS2_EEEEZN17ParallelMergeSort13recursiveSortEiiE3$_1EEERNS_13tuple_elementIXT_ENS_5tupleIJDpT0_EEEE4typeERSC_', symObjAddr: 0x1C34, symBinAddr: 0x10000553C, symSize: 0x24 }
  - { offsetInCU: 0x4B40, offset: 0xFC55, size: 0x8, addend: 0x0, symName: '__ZNSt3__116__thread_executeB7v160006INS_10unique_ptrINS_15__thread_structENS_14default_deleteIS2_EEEEZN17ParallelMergeSort13recursiveSortEiiE3$_1JEJEEEvRNS_5tupleIJT_T0_DpT1_EEENS_15__tuple_indicesIJXspT2_EEEE', symObjAddr: 0x1C58, symBinAddr: 0x100005560, symSize: 0x28 }
  - { offsetInCU: 0x4B93, offset: 0xFCA8, size: 0x8, addend: 0x0, symName: '__ZNSt3__18__invokeB7v160006IZN17ParallelMergeSort13recursiveSortEiiE3$_1JEEEDTclclsr3stdE7declvalIT_EEspclsr3stdE7declvalIT0_EEEEOS3_DpOS4_', symObjAddr: 0x1C80, symBinAddr: 0x100005588, symSize: 0x24 }
  - { offsetInCU: 0x4BCC, offset: 0xFCE1, size: 0x8, addend: 0x0, symName: '__ZNSt3__13getB7v160006ILm1EJNS_10unique_ptrINS_15__thread_structENS_14default_deleteIS2_EEEEZN17ParallelMergeSort13recursiveSortEiiE3$_1EEERNS_13tuple_elementIXT_ENS_5tupleIJDpT0_EEEE4typeERSC_', symObjAddr: 0x1CA4, symBinAddr: 0x1000055AC, symSize: 0x28 }
  - { offsetInCU: 0x4C15, offset: 0xFD2A, size: 0x8, addend: 0x0, symName: __ZNSt3__13maxB7v160006ImEERKT_S3_S3_, symObjAddr: 0x2B9C, symBinAddr: 0x100005CC0, symSize: 0x2C }
  - { offsetInCU: 0x4C58, offset: 0xFD6D, size: 0x8, addend: 0x0, symName: __ZNSt3__13maxB7v160006ImNS_6__lessImmEEEERKT_S5_S5_T0_, symObjAddr: 0x2E14, symBinAddr: 0x100005CEC, symSize: 0x54 }
  - { offsetInCU: 0x4CB2, offset: 0xFDC7, size: 0x8, addend: 0x0, symName: __ZNSt3__142__uninitialized_allocator_move_if_noexceptB7v160006INS_9allocatorIiEENS_16reverse_iteratorIPiEES5_ivEET1_RT_T0_S9_S6_, symObjAddr: 0x31AC, symBinAddr: 0x100005F6C, symSize: 0x78 }
  - { offsetInCU: 0x4D30, offset: 0xFE45, size: 0x8, addend: 0x0, symName: __ZNSt3__14swapB7v160006IPiEENS_9enable_ifIXaasr21is_move_constructibleIT_EE5valuesr18is_move_assignableIS3_EE5valueEvE4typeERS3_S6_, symObjAddr: 0x3270, symBinAddr: 0x100006030, symSize: 0x3C }
  - { offsetInCU: 0x4D82, offset: 0xFE97, size: 0x8, addend: 0x0, symName: __ZNSt3__125__debug_db_invalidate_allB7v160006INS_6vectorIiNS_9allocatorIiEEEEEEvPT_, symObjAddr: 0x3358, symBinAddr: 0x10000606C, symSize: 0x10 }
  - { offsetInCU: 0x4DB3, offset: 0xFEC8, size: 0x8, addend: 0x0, symName: __ZNSt3__14moveB7v160006INS_16reverse_iteratorIPiEES3_EET0_T_S5_S4_, symObjAddr: 0x3368, symBinAddr: 0x10000607C, symSize: 0x78 }
  - { offsetInCU: 0x4E0D, offset: 0xFF22, size: 0x8, addend: 0x0, symName: __ZNSt3__16__moveB7v160006INS_17_ClassicAlgPolicyENS_16reverse_iteratorIPiEES4_S4_EENS_4pairIT0_T2_EES6_T1_S7_, symObjAddr: 0x33E0, symBinAddr: 0x1000060F4, symSize: 0x64 }
  - { offsetInCU: 0x4E79, offset: 0xFF8E, size: 0x8, addend: 0x0, symName: __ZNSt3__123__dispatch_copy_or_moveB7v160006INS_17_ClassicAlgPolicyENS_11__move_loopIS1_EENS_14__move_trivialENS_16reverse_iteratorIPiEES7_S7_EENS_4pairIT2_T4_EES9_T3_SA_, symObjAddr: 0x3444, symBinAddr: 0x100006158, symSize: 0x64 }
  - { offsetInCU: 0x4EF7, offset: 0x1000C, size: 0x8, addend: 0x0, symName: __ZNSt3__121__unwrap_and_dispatchB7v160006INS_10__overloadINS_11__move_loopINS_17_ClassicAlgPolicyEEENS_14__move_trivialEEENS_16reverse_iteratorIPiEES9_S9_Li0EEENS_4pairIT0_T2_EESB_T1_SC_, symObjAddr: 0x34A8, symBinAddr: 0x1000061BC, symSize: 0x12C }
  - { offsetInCU: 0x4F8A, offset: 0x1009F, size: 0x8, addend: 0x0, symName: __ZNSt3__114__unwrap_rangeB7v160006INS_16reverse_iteratorIPiEES3_EENS_4pairIT0_S5_EET_S7_, symObjAddr: 0x35D4, symBinAddr: 0x1000062E8, symSize: 0x84 }
  - { offsetInCU: 0x5105, offset: 0x1021A, size: 0x8, addend: 0x0, symName: __ZNSt3__113__unwrap_iterB7v160006INS_16reverse_iteratorIPiEENS_18__unwrap_iter_implIS3_Lb0EEELi0EEEDTclsrT0_8__unwrapclsr3stdE7declvalIT_EEEES7_, symObjAddr: 0x36F8, symBinAddr: 0x10000640C, symSize: 0x44 }
  - { offsetInCU: 0x514A, offset: 0x1025F, size: 0x8, addend: 0x0, symName: __ZNSt3__19make_pairB7v160006INS_16reverse_iteratorIPiEES3_EENS_4pairINS_18__unwrap_ref_decayIT_E4typeENS5_IT0_E4typeEEEOS6_OS9_, symObjAddr: 0x373C, symBinAddr: 0x100006450, symSize: 0x38 }
  - { offsetInCU: 0x5199, offset: 0x102AE, size: 0x8, addend: 0x0, symName: __ZNSt3__114__rewrap_rangeB7v160006INS_16reverse_iteratorIPiEES3_EET_S4_T0_, symObjAddr: 0x3774, symBinAddr: 0x100006488, symSize: 0x5C }
  - { offsetInCU: 0x51E5, offset: 0x102FA, size: 0x8, addend: 0x0, symName: __ZNSt3__113__rewrap_iterB7v160006INS_16reverse_iteratorIPiEES3_NS_18__unwrap_iter_implIS3_Lb0EEEEET_S6_T0_, symObjAddr: 0x37D0, symBinAddr: 0x1000064E4, symSize: 0x74 }
  - { offsetInCU: 0x523A, offset: 0x1034F, size: 0x8, addend: 0x0, symName: __ZNSt3__1neB7v160006IPiS1_EEbRKNS_16reverse_iteratorIT_EERKNS2_IT0_EE, symObjAddr: 0x3844, symBinAddr: 0x100006558, symSize: 0x48 }
  - { offsetInCU: 0x5757, offset: 0x1086C, size: 0x8, addend: 0x0, symName: '__ZNSt3__114__thread_proxyB7v160006INS_5tupleIJNS_10unique_ptrINS_15__thread_structENS_14default_deleteIS3_EEEEZN17ParallelMergeSort4sortEvE3$_2EEEEEPvSA_', symObjAddr: 0x3D8C, symBinAddr: 0x100006AA0, symSize: 0x90 }
  - { offsetInCU: 0x57B8, offset: 0x108CD, size: 0x8, addend: 0x0, symName: '__ZNSt3__13getB7v160006ILm0EJNS_10unique_ptrINS_15__thread_structENS_14default_deleteIS2_EEEEZN17ParallelMergeSort4sortEvE3$_2EEERNS_13tuple_elementIXT_ENS_5tupleIJDpT0_EEEE4typeERSC_', symObjAddr: 0x4090, symBinAddr: 0x100006DA4, symSize: 0x24 }
  - { offsetInCU: 0x5801, offset: 0x10916, size: 0x8, addend: 0x0, symName: '__ZNSt3__116__thread_executeB7v160006INS_10unique_ptrINS_15__thread_structENS_14default_deleteIS2_EEEEZN17ParallelMergeSort4sortEvE3$_2JEJEEEvRNS_5tupleIJT_T0_DpT1_EEENS_15__tuple_indicesIJXspT2_EEEE', symObjAddr: 0x40B4, symBinAddr: 0x100006DC8, symSize: 0x28 }
  - { offsetInCU: 0x5854, offset: 0x10969, size: 0x8, addend: 0x0, symName: '__ZNSt3__18__invokeB7v160006IZN17ParallelMergeSort4sortEvE3$_2JEEEDTclclsr3stdE7declvalIT_EEspclsr3stdE7declvalIT0_EEEEOS3_DpOS4_', symObjAddr: 0x40DC, symBinAddr: 0x100006DF0, symSize: 0x24 }
  - { offsetInCU: 0x588D, offset: 0x109A2, size: 0x8, addend: 0x0, symName: '__ZNSt3__13getB7v160006ILm1EJNS_10unique_ptrINS_15__thread_structENS_14default_deleteIS2_EEEEZN17ParallelMergeSort4sortEvE3$_2EEERNS_13tuple_elementIXT_ENS_5tupleIJDpT0_EEEE4typeERSC_', symObjAddr: 0x4100, symBinAddr: 0x100006E14, symSize: 0x28 }
  - { offsetInCU: 0x5D7C, offset: 0x10E91, size: 0x8, addend: 0x0, symName: __ZN17ParallelMergeSort13recursiveSortEii, symObjAddr: 0x94, symBinAddr: 0x100003A34, symSize: 0x400 }
  - { offsetInCU: 0x5FEE, offset: 0x11103, size: 0x8, addend: 0x0, symName: __ZNSt3__16vectorIiNS_9allocatorIiEEE26__swap_out_circular_bufferERNS_14__split_bufferIiRS2_EE, symObjAddr: 0x29DC, symBinAddr: 0x100005B7C, symSize: 0x118 }
  - { offsetInCU: 0x6048, offset: 0x1115D, size: 0x8, addend: 0x0, symName: __ZN17ParallelMergeSort4sortEv, symObjAddr: 0x6B4, symBinAddr: 0x100003FDC, symSize: 0x90 }
  - { offsetInCU: 0x7EE5, offset: 0x12FFA, size: 0x8, addend: 0x0, symName: __ZN17ParallelMergeSortC2EPNSt3__16vectorIiNS0_9allocatorIiEEEE, symObjAddr: 0x0, symBinAddr: 0x1000039A0, symSize: 0x20 }
  - { offsetInCU: 0x7F1E, offset: 0x13033, size: 0x8, addend: 0x0, symName: __ZN17ParallelMergeSortC1EPNSt3__16vectorIiNS0_9allocatorIiEEEE, symObjAddr: 0x20, symBinAddr: 0x1000039C0, symSize: 0x34 }
  - { offsetInCU: 0x7F57, offset: 0x1306C, size: 0x8, addend: 0x0, symName: __ZN17ParallelMergeSortD2Ev, symObjAddr: 0x54, symBinAddr: 0x1000039F4, symSize: 0x14 }
  - { offsetInCU: 0x7F82, offset: 0x13097, size: 0x8, addend: 0x0, symName: __ZN17ParallelMergeSortD1Ev, symObjAddr: 0x68, symBinAddr: 0x100003A08, symSize: 0x2C }
  - { offsetInCU: 0x7FAD, offset: 0x130C2, size: 0x8, addend: 0x0, symName: __ZNSt3__16vectorIiNS_9allocatorIiEEE5beginB7v160006Ev, symObjAddr: 0x4D0, symBinAddr: 0x100003E70, symSize: 0x30 }
  - { offsetInCU: 0x7FD4, offset: 0x130E9, size: 0x8, addend: 0x0, symName: __ZNKSt3__111__wrap_iterIPiEplB7v160006El, symObjAddr: 0x500, symBinAddr: 0x100003EA0, symSize: 0x3C }
  - { offsetInCU: 0x80D5, offset: 0x131EA, size: 0x8, addend: 0x0, symName: '__ZNSt3__16threadC1IZN17ParallelMergeSort13recursiveSortEiiE3$_0JEvEEOT_DpOT0_', symObjAddr: 0x53C, symBinAddr: 0x100003EDC, symSize: 0x34 }
  - { offsetInCU: 0x8121, offset: 0x13236, size: 0x8, addend: 0x0, symName: '__ZNSt3__16threadC1IZN17ParallelMergeSort13recursiveSortEiiE3$_1JEvEEOT_DpOT0_', symObjAddr: 0x570, symBinAddr: 0x100003F10, symSize: 0x34 }
  - { offsetInCU: 0x8168, offset: 0x1327D, size: 0x8, addend: 0x0, symName: __ZNSt3__16vectorIiNS_9allocatorIiEEEC1B7v160006Ev, symObjAddr: 0x5A4, symBinAddr: 0x100003F44, symSize: 0x2C }
  - { offsetInCU: 0x8191, offset: 0x132A6, size: 0x8, addend: 0x0, symName: __ZNSt3__16vectorIiNS_9allocatorIiEEE9push_backB7v160006ERKi, symObjAddr: 0x5F4, symBinAddr: 0x100003F70, symSize: 0x6C }
  - { offsetInCU: 0x81CC, offset: 0x132E1, size: 0x8, addend: 0x0, symName: '__ZNSt3__16threadC1IZN17ParallelMergeSort4sortEvE3$_2JEvEEOT_DpOT0_', symObjAddr: 0x744, symBinAddr: 0x10000406C, symSize: 0x34 }
  - { offsetInCU: 0x8213, offset: 0x13328, size: 0x8, addend: 0x0, symName: __ZNSt3__16vectorIiNS_9allocatorIiEEE11__make_iterB7v160006EPi, symObjAddr: 0x778, symBinAddr: 0x1000040A0, symSize: 0x34 }
  - { offsetInCU: 0x8246, offset: 0x1335B, size: 0x8, addend: 0x0, symName: __ZNSt3__111__wrap_iterIPiEC1B7v160006EPKvS1_, symObjAddr: 0x7AC, symBinAddr: 0x1000040D4, symSize: 0x3C }
  - { offsetInCU: 0x828B, offset: 0x133A0, size: 0x8, addend: 0x0, symName: __ZNSt3__111__wrap_iterIPiEC2B7v160006EPKvS1_, symObjAddr: 0x7E8, symBinAddr: 0x100004110, symSize: 0x24 }
  - { offsetInCU: 0x82D0, offset: 0x133E5, size: 0x8, addend: 0x0, symName: __ZNSt3__111__wrap_iterIPiEpLB7v160006El, symObjAddr: 0x80C, symBinAddr: 0x100004134, symSize: 0x28 }
  - { offsetInCU: 0x8303, offset: 0x13418, size: 0x8, addend: 0x0, symName: __ZNSt3__118__unwrap_iter_implINS_11__wrap_iterIPiEELb1EE8__unwrapB7v160006ES3_, symObjAddr: 0x938, symBinAddr: 0x100004260, symSize: 0x28 }
  - { offsetInCU: 0x8330, offset: 0x13445, size: 0x8, addend: 0x0, symName: __ZNSt3__119__to_address_helperINS_11__wrap_iterIPiEEvE6__callB7v160006ERKS3_, symObjAddr: 0x984, symBinAddr: 0x1000042AC, symSize: 0x30 }
  - { offsetInCU: 0x8353, offset: 0x13468, size: 0x8, addend: 0x0, symName: __ZNSt3__114pointer_traitsINS_11__wrap_iterIPiEEE10to_addressB7v160006ES3_, symObjAddr: 0x9B4, symBinAddr: 0x1000042DC, symSize: 0x2C }
  - { offsetInCU: 0x8377, offset: 0x1348C, size: 0x8, addend: 0x0, symName: __ZNKSt3__111__wrap_iterIPiE4baseB7v160006Ev, symObjAddr: 0x9F4, symBinAddr: 0x100004308, symSize: 0x18 }
  - { offsetInCU: 0x839C, offset: 0x134B1, size: 0x8, addend: 0x0, symName: '__ZNSt3__16threadC2IZN17ParallelMergeSort13recursiveSortEiiE3$_0JEvEEOT_DpOT0_', symObjAddr: 0xA0C, symBinAddr: 0x100004320, symSize: 0x148 }
  - { offsetInCU: 0x8416, offset: 0x1352B, size: 0x8, addend: 0x0, symName: __ZNSt3__110unique_ptrINS_15__thread_structENS_14default_deleteIS1_EEEC1B7v160006ILb1EvEEPS1_, symObjAddr: 0xB54, symBinAddr: 0x100004468, symSize: 0x34 }
  - { offsetInCU: 0x8458, offset: 0x1356D, size: 0x8, addend: 0x0, symName: '__ZNSt3__15tupleIJNS_10unique_ptrINS_15__thread_structENS_14default_deleteIS2_EEEEZN17ParallelMergeSort13recursiveSortEiiE3$_0EEC1B7v160006IJS5_S7_ELi0EEEDpOT_', symObjAddr: 0xB88, symBinAddr: 0x10000449C, symSize: 0x3C }
  - { offsetInCU: 0x8547, offset: 0x1365C, size: 0x8, addend: 0x0, symName: '__ZNSt3__110unique_ptrINS_5tupleIJNS0_INS_15__thread_structENS_14default_deleteIS2_EEEEZN17ParallelMergeSort13recursiveSortEiiE3$_0EEENS3_IS8_EEEC1B7v160006ILb1EvEEPS8_', symObjAddr: 0xBC4, symBinAddr: 0x1000044D8, symSize: 0x34 }
  - { offsetInCU: 0x8589, offset: 0x1369E, size: 0x8, addend: 0x0, symName: '__ZNKSt3__110unique_ptrINS_5tupleIJNS0_INS_15__thread_structENS_14default_deleteIS2_EEEEZN17ParallelMergeSort13recursiveSortEiiE3$_0EEENS3_IS8_EEE3getB7v160006Ev', symObjAddr: 0xCC0, symBinAddr: 0x1000045D4, symSize: 0x28 }
  - { offsetInCU: 0x85AD, offset: 0x136C2, size: 0x8, addend: 0x0, symName: '__ZNSt3__110unique_ptrINS_5tupleIJNS0_INS_15__thread_structENS_14default_deleteIS2_EEEEZN17ParallelMergeSort13recursiveSortEiiE3$_0EEENS3_IS8_EEE7releaseB7v160006Ev', symObjAddr: 0xCE8, symBinAddr: 0x1000045FC, symSize: 0x44 }
  - { offsetInCU: 0x85E0, offset: 0x136F5, size: 0x8, addend: 0x0, symName: '__ZNSt3__110unique_ptrINS_5tupleIJNS0_INS_15__thread_structENS_14default_deleteIS2_EEEEZN17ParallelMergeSort13recursiveSortEiiE3$_0EEENS3_IS8_EEED1B7v160006Ev', symObjAddr: 0xD2C, symBinAddr: 0x100004640, symSize: 0x2C }
  - { offsetInCU: 0x8609, offset: 0x1371E, size: 0x8, addend: 0x0, symName: __ZNSt3__110unique_ptrINS_15__thread_structENS_14default_deleteIS1_EEED1B7v160006Ev, symObjAddr: 0xD58, symBinAddr: 0x10000466C, symSize: 0x2C }
  - { offsetInCU: 0x8632, offset: 0x13747, size: 0x8, addend: 0x0, symName: __ZNSt3__110unique_ptrINS_15__thread_structENS_14default_deleteIS1_EEEC2B7v160006ILb1EvEEPS1_, symObjAddr: 0xD84, symBinAddr: 0x100004698, symSize: 0x44 }
  - { offsetInCU: 0x8679, offset: 0x1378E, size: 0x8, addend: 0x0, symName: __ZNSt3__117__compressed_pairIPNS_15__thread_structENS_14default_deleteIS1_EEEC1B7v160006IRS2_NS_16__value_init_tagEEEOT_OT0_, symObjAddr: 0xDC8, symBinAddr: 0x1000046DC, symSize: 0x3C }
  - { offsetInCU: 0x86D0, offset: 0x137E5, size: 0x8, addend: 0x0, symName: __ZNSt3__117__compressed_pairIPNS_15__thread_structENS_14default_deleteIS1_EEEC2B7v160006IRS2_NS_16__value_init_tagEEEOT_OT0_, symObjAddr: 0xE10, symBinAddr: 0x100004718, symSize: 0x40 }
  - { offsetInCU: 0x8727, offset: 0x1383C, size: 0x8, addend: 0x0, symName: __ZNSt3__122__compressed_pair_elemIPNS_15__thread_structELi0ELb0EEC2B7v160006IRS2_vEEOT_, symObjAddr: 0xE50, symBinAddr: 0x100004758, symSize: 0x24 }
  - { offsetInCU: 0x8768, offset: 0x1387D, size: 0x8, addend: 0x0, symName: __ZNSt3__122__compressed_pair_elemINS_14default_deleteINS_15__thread_structEEELi1ELb1EEC2B7v160006ENS_16__value_init_tagE, symObjAddr: 0xE74, symBinAddr: 0x10000477C, symSize: 0x14 }
  - { offsetInCU: 0x879C, offset: 0x138B1, size: 0x8, addend: 0x0, symName: '__ZNSt3__15tupleIJNS_10unique_ptrINS_15__thread_structENS_14default_deleteIS2_EEEEZN17ParallelMergeSort13recursiveSortEiiE3$_0EEC2B7v160006IJS5_S7_ELi0EEEDpOT_', symObjAddr: 0xE88, symBinAddr: 0x100004790, symSize: 0x3C }
  - { offsetInCU: 0x87FA, offset: 0x1390F, size: 0x8, addend: 0x0, symName: '__ZNSt3__112__tuple_implINS_15__tuple_indicesIJLm0ELm1EEEEJNS_10unique_ptrINS_15__thread_structENS_14default_deleteIS4_EEEEZN17ParallelMergeSort13recursiveSortEiiE3$_0EEC1B7v160006IJLm0ELm1EEJS7_S9_EJEJEJS7_S9_EEENS1_IJXspT_EEEENS_13__tuple_typesIJDpT0_EEENS1_IJXspT1_EEEENSD_IJDpT2_EEEDpOT3_', symObjAddr: 0xEC4, symBinAddr: 0x1000047CC, symSize: 0x3C }
  - { offsetInCU: 0x88AD, offset: 0x139C2, size: 0x8, addend: 0x0, symName: '__ZNSt3__112__tuple_implINS_15__tuple_indicesIJLm0ELm1EEEEJNS_10unique_ptrINS_15__thread_structENS_14default_deleteIS4_EEEEZN17ParallelMergeSort13recursiveSortEiiE3$_0EEC2B7v160006IJLm0ELm1EEJS7_S9_EJEJEJS7_S9_EEENS1_IJXspT_EEEENS_13__tuple_typesIJDpT0_EEENS1_IJXspT1_EEEENSD_IJDpT2_EEEDpOT3_', symObjAddr: 0xF00, symBinAddr: 0x100004808, symSize: 0x48 }
  - { offsetInCU: 0x8960, offset: 0x13A75, size: 0x8, addend: 0x0, symName: __ZNSt3__112__tuple_leafILm0ENS_10unique_ptrINS_15__thread_structENS_14default_deleteIS2_EEEELb0EEC2B7v160006IS5_vEEOT_, symObjAddr: 0xF48, symBinAddr: 0x100004850, symSize: 0x34 }
  - { offsetInCU: 0x89A2, offset: 0x13AB7, size: 0x8, addend: 0x0, symName: '__ZNSt3__112__tuple_leafILm1EZN17ParallelMergeSort13recursiveSortEiiE3$_0Lb0EEC2B7v160006IS2_vEEOT_', symObjAddr: 0xF7C, symBinAddr: 0x100004884, symSize: 0x24 }
  - { offsetInCU: 0x89E4, offset: 0x13AF9, size: 0x8, addend: 0x0, symName: __ZNSt3__110unique_ptrINS_15__thread_structENS_14default_deleteIS1_EEEC1B7v160006EOS4_, symObjAddr: 0xFA0, symBinAddr: 0x1000048A8, symSize: 0x34 }
  - { offsetInCU: 0x8A1B, offset: 0x13B30, size: 0x8, addend: 0x0, symName: __ZNSt3__110unique_ptrINS_15__thread_structENS_14default_deleteIS1_EEEC2B7v160006EOS4_, symObjAddr: 0xFD4, symBinAddr: 0x1000048DC, symSize: 0x60 }
  - { offsetInCU: 0x8A52, offset: 0x13B67, size: 0x8, addend: 0x0, symName: __ZNSt3__110unique_ptrINS_15__thread_structENS_14default_deleteIS1_EEE7releaseB7v160006Ev, symObjAddr: 0x1034, symBinAddr: 0x10000493C, symSize: 0x44 }
  - { offsetInCU: 0x8A85, offset: 0x13B9A, size: 0x8, addend: 0x0, symName: __ZNSt3__110unique_ptrINS_15__thread_structENS_14default_deleteIS1_EEE11get_deleterB7v160006Ev, symObjAddr: 0x1078, symBinAddr: 0x100004980, symSize: 0x24 }
  - { offsetInCU: 0x8AB3, offset: 0x13BC8, size: 0x8, addend: 0x0, symName: __ZNSt3__117__compressed_pairIPNS_15__thread_structENS_14default_deleteIS1_EEEC1B7v160006IS2_S4_EEOT_OT0_, symObjAddr: 0x109C, symBinAddr: 0x1000049A4, symSize: 0x3C }
  - { offsetInCU: 0x8B0A, offset: 0x13C1F, size: 0x8, addend: 0x0, symName: __ZNSt3__117__compressed_pairIPNS_15__thread_structENS_14default_deleteIS1_EEE5firstB7v160006Ev, symObjAddr: 0x10D8, symBinAddr: 0x1000049E0, symSize: 0x24 }
  - { offsetInCU: 0x8B2E, offset: 0x13C43, size: 0x8, addend: 0x0, symName: __ZNSt3__122__compressed_pair_elemIPNS_15__thread_structELi0ELb0EE5__getB7v160006Ev, symObjAddr: 0x10FC, symBinAddr: 0x100004A04, symSize: 0x14 }
  - { offsetInCU: 0x8B53, offset: 0x13C68, size: 0x8, addend: 0x0, symName: __ZNSt3__117__compressed_pairIPNS_15__thread_structENS_14default_deleteIS1_EEE6secondB7v160006Ev, symObjAddr: 0x1110, symBinAddr: 0x100004A18, symSize: 0x24 }
  - { offsetInCU: 0x8B77, offset: 0x13C8C, size: 0x8, addend: 0x0, symName: __ZNSt3__122__compressed_pair_elemINS_14default_deleteINS_15__thread_structEEELi1ELb1EE5__getB7v160006Ev, symObjAddr: 0x1134, symBinAddr: 0x100004A3C, symSize: 0x14 }
  - { offsetInCU: 0x8B9C, offset: 0x13CB1, size: 0x8, addend: 0x0, symName: __ZNSt3__117__compressed_pairIPNS_15__thread_structENS_14default_deleteIS1_EEEC2B7v160006IS2_S4_EEOT_OT0_, symObjAddr: 0x1148, symBinAddr: 0x100004A50, symSize: 0x44 }
  - { offsetInCU: 0x8BF3, offset: 0x13D08, size: 0x8, addend: 0x0, symName: __ZNSt3__122__compressed_pair_elemIPNS_15__thread_structELi0ELb0EEC2B7v160006IS2_vEEOT_, symObjAddr: 0x118C, symBinAddr: 0x100004A94, symSize: 0x24 }
  - { offsetInCU: 0x8C34, offset: 0x13D49, size: 0x8, addend: 0x0, symName: __ZNSt3__122__compressed_pair_elemINS_14default_deleteINS_15__thread_structEEELi1ELb1EEC2B7v160006IS3_vEEOT_, symObjAddr: 0x11B0, symBinAddr: 0x100004AB8, symSize: 0x18 }
  - { offsetInCU: 0x8C75, offset: 0x13D8A, size: 0x8, addend: 0x0, symName: '__ZNSt3__110unique_ptrINS_5tupleIJNS0_INS_15__thread_structENS_14default_deleteIS2_EEEEZN17ParallelMergeSort13recursiveSortEiiE3$_0EEENS3_IS8_EEEC2B7v160006ILb1EvEEPS8_', symObjAddr: 0x11C8, symBinAddr: 0x100004AD0, symSize: 0x44 }
  - { offsetInCU: 0x8CB7, offset: 0x13DCC, size: 0x8, addend: 0x0, symName: '__ZNSt3__117__compressed_pairIPNS_5tupleIJNS_10unique_ptrINS_15__thread_structENS_14default_deleteIS3_EEEEZN17ParallelMergeSort13recursiveSortEiiE3$_0EEENS4_IS9_EEEC1B7v160006IRSA_NS_16__value_init_tagEEEOT_OT0_', symObjAddr: 0x120C, symBinAddr: 0x100004B14, symSize: 0x3C }
  - { offsetInCU: 0x8D0E, offset: 0x13E23, size: 0x8, addend: 0x0, symName: '__ZNSt3__117__compressed_pairIPNS_5tupleIJNS_10unique_ptrINS_15__thread_structENS_14default_deleteIS3_EEEEZN17ParallelMergeSort13recursiveSortEiiE3$_0EEENS4_IS9_EEEC2B7v160006IRSA_NS_16__value_init_tagEEEOT_OT0_', symObjAddr: 0x1248, symBinAddr: 0x100004B50, symSize: 0x40 }
  - { offsetInCU: 0x8D65, offset: 0x13E7A, size: 0x8, addend: 0x0, symName: '__ZNSt3__122__compressed_pair_elemIPNS_5tupleIJNS_10unique_ptrINS_15__thread_structENS_14default_deleteIS3_EEEEZN17ParallelMergeSort13recursiveSortEiiE3$_0EEELi0ELb0EEC2B7v160006IRSA_vEEOT_', symObjAddr: 0x1288, symBinAddr: 0x100004B90, symSize: 0x24 }
  - { offsetInCU: 0x8DA6, offset: 0x13EBB, size: 0x8, addend: 0x0, symName: '__ZNSt3__122__compressed_pair_elemINS_14default_deleteINS_5tupleIJNS_10unique_ptrINS_15__thread_structENS1_IS4_EEEEZN17ParallelMergeSort13recursiveSortEiiE3$_0EEEEELi1ELb1EEC2B7v160006ENS_16__value_init_tagE', symObjAddr: 0x12AC, symBinAddr: 0x100004BB4, symSize: 0x14 }
  - { offsetInCU: 0x8E09, offset: 0x13F1E, size: 0x8, addend: 0x0, symName: __ZNSt3__121__thread_specific_ptrINS_15__thread_structEE11set_pointerEPS1_, symObjAddr: 0x12C0, symBinAddr: 0x100004BC8, symSize: 0x30 }
  - { offsetInCU: 0x8E3D, offset: 0x13F52, size: 0x8, addend: 0x0, symName: __ZNSt3__112__tuple_leafILm0ENS_10unique_ptrINS_15__thread_structENS_14default_deleteIS2_EEEELb0EE3getB7v160006Ev, symObjAddr: 0x1368, symBinAddr: 0x100004C70, symSize: 0x14 }
  - { offsetInCU: 0x8E62, offset: 0x13F77, size: 0x8, addend: 0x0, symName: '__ZZN17ParallelMergeSort13recursiveSortEiiENK3$_0clEv', symObjAddr: 0x13C8, symBinAddr: 0x100004CD0, symSize: 0x30 }
  - { offsetInCU: 0x8E8B, offset: 0x13FA0, size: 0x8, addend: 0x0, symName: '__ZNSt3__112__tuple_leafILm1EZN17ParallelMergeSort13recursiveSortEiiE3$_0Lb0EE3getB7v160006Ev', symObjAddr: 0x13F8, symBinAddr: 0x100004D00, symSize: 0x14 }
  - { offsetInCU: 0x8EB0, offset: 0x13FC5, size: 0x8, addend: 0x0, symName: '__ZNKSt3__117__compressed_pairIPNS_5tupleIJNS_10unique_ptrINS_15__thread_structENS_14default_deleteIS3_EEEEZN17ParallelMergeSort13recursiveSortEiiE3$_0EEENS4_IS9_EEE5firstB7v160006Ev', symObjAddr: 0x140C, symBinAddr: 0x100004D14, symSize: 0x24 }
  - { offsetInCU: 0x8ED4, offset: 0x13FE9, size: 0x8, addend: 0x0, symName: '__ZNKSt3__122__compressed_pair_elemIPNS_5tupleIJNS_10unique_ptrINS_15__thread_structENS_14default_deleteIS3_EEEEZN17ParallelMergeSort13recursiveSortEiiE3$_0EEELi0ELb0EE5__getB7v160006Ev', symObjAddr: 0x1430, symBinAddr: 0x100004D38, symSize: 0x14 }
  - { offsetInCU: 0x8EF9, offset: 0x1400E, size: 0x8, addend: 0x0, symName: '__ZNSt3__117__compressed_pairIPNS_5tupleIJNS_10unique_ptrINS_15__thread_structENS_14default_deleteIS3_EEEEZN17ParallelMergeSort13recursiveSortEiiE3$_0EEENS4_IS9_EEE5firstB7v160006Ev', symObjAddr: 0x1444, symBinAddr: 0x100004D4C, symSize: 0x24 }
  - { offsetInCU: 0x8F1D, offset: 0x14032, size: 0x8, addend: 0x0, symName: '__ZNSt3__122__compressed_pair_elemIPNS_5tupleIJNS_10unique_ptrINS_15__thread_structENS_14default_deleteIS3_EEEEZN17ParallelMergeSort13recursiveSortEiiE3$_0EEELi0ELb0EE5__getB7v160006Ev', symObjAddr: 0x1468, symBinAddr: 0x100004D70, symSize: 0x14 }
  - { offsetInCU: 0x8F42, offset: 0x14057, size: 0x8, addend: 0x0, symName: '__ZNSt3__110unique_ptrINS_5tupleIJNS0_INS_15__thread_structENS_14default_deleteIS2_EEEEZN17ParallelMergeSort13recursiveSortEiiE3$_0EEENS3_IS8_EEED2B7v160006Ev', symObjAddr: 0x147C, symBinAddr: 0x100004D84, symSize: 0x30 }
  - { offsetInCU: 0x8F6B, offset: 0x14080, size: 0x8, addend: 0x0, symName: '__ZNSt3__110unique_ptrINS_5tupleIJNS0_INS_15__thread_structENS_14default_deleteIS2_EEEEZN17ParallelMergeSort13recursiveSortEiiE3$_0EEENS3_IS8_EEE5resetB7v160006EPS8_', symObjAddr: 0x14AC, symBinAddr: 0x100004DB4, symSize: 0x78 }
  - { offsetInCU: 0x8FAD, offset: 0x140C2, size: 0x8, addend: 0x0, symName: '__ZNSt3__117__compressed_pairIPNS_5tupleIJNS_10unique_ptrINS_15__thread_structENS_14default_deleteIS3_EEEEZN17ParallelMergeSort13recursiveSortEiiE3$_0EEENS4_IS9_EEE6secondB7v160006Ev', symObjAddr: 0x1524, symBinAddr: 0x100004E2C, symSize: 0x24 }
  - { offsetInCU: 0x8FD1, offset: 0x140E6, size: 0x8, addend: 0x0, symName: '__ZNKSt3__114default_deleteINS_5tupleIJNS_10unique_ptrINS_15__thread_structENS0_IS3_EEEEZN17ParallelMergeSort13recursiveSortEiiE3$_0EEEEclB7v160006EPS8_', symObjAddr: 0x1548, symBinAddr: 0x100004E50, symSize: 0x4C }
  - { offsetInCU: 0x9003, offset: 0x14118, size: 0x8, addend: 0x0, symName: '__ZNSt3__122__compressed_pair_elemINS_14default_deleteINS_5tupleIJNS_10unique_ptrINS_15__thread_structENS1_IS4_EEEEZN17ParallelMergeSort13recursiveSortEiiE3$_0EEEEELi1ELb1EE5__getB7v160006Ev', symObjAddr: 0x1594, symBinAddr: 0x100004E9C, symSize: 0x14 }
  - { offsetInCU: 0x9028, offset: 0x1413D, size: 0x8, addend: 0x0, symName: '__ZNSt3__15tupleIJNS_10unique_ptrINS_15__thread_structENS_14default_deleteIS2_EEEEZN17ParallelMergeSort13recursiveSortEiiE3$_0EED1Ev', symObjAddr: 0x15A8, symBinAddr: 0x100004EB0, symSize: 0x2C }
  - { offsetInCU: 0x9054, offset: 0x14169, size: 0x8, addend: 0x0, symName: '__ZNSt3__15tupleIJNS_10unique_ptrINS_15__thread_structENS_14default_deleteIS2_EEEEZN17ParallelMergeSort13recursiveSortEiiE3$_0EED2Ev', symObjAddr: 0x15D4, symBinAddr: 0x100004EDC, symSize: 0x2C }
  - { offsetInCU: 0x9080, offset: 0x14195, size: 0x8, addend: 0x0, symName: '__ZNSt3__112__tuple_implINS_15__tuple_indicesIJLm0ELm1EEEEJNS_10unique_ptrINS_15__thread_structENS_14default_deleteIS4_EEEEZN17ParallelMergeSort13recursiveSortEiiE3$_0EED1Ev', symObjAddr: 0x1600, symBinAddr: 0x100004F08, symSize: 0x2C }
  - { offsetInCU: 0x90AC, offset: 0x141C1, size: 0x8, addend: 0x0, symName: '__ZNSt3__112__tuple_implINS_15__tuple_indicesIJLm0ELm1EEEEJNS_10unique_ptrINS_15__thread_structENS_14default_deleteIS4_EEEEZN17ParallelMergeSort13recursiveSortEiiE3$_0EED2Ev', symObjAddr: 0x162C, symBinAddr: 0x100004F34, symSize: 0x2C }
  - { offsetInCU: 0x90D8, offset: 0x141ED, size: 0x8, addend: 0x0, symName: __ZNSt3__112__tuple_leafILm0ENS_10unique_ptrINS_15__thread_structENS_14default_deleteIS2_EEEELb0EED2Ev, symObjAddr: 0x1658, symBinAddr: 0x100004F60, symSize: 0x2C }
  - { offsetInCU: 0x9104, offset: 0x14219, size: 0x8, addend: 0x0, symName: __ZNSt3__110unique_ptrINS_15__thread_structENS_14default_deleteIS1_EEED2B7v160006Ev, symObjAddr: 0x1684, symBinAddr: 0x100004F8C, symSize: 0x30 }
  - { offsetInCU: 0x912D, offset: 0x14242, size: 0x8, addend: 0x0, symName: __ZNSt3__110unique_ptrINS_15__thread_structENS_14default_deleteIS1_EEE5resetB7v160006EPS1_, symObjAddr: 0x16B4, symBinAddr: 0x100004FBC, symSize: 0x78 }
  - { offsetInCU: 0x916F, offset: 0x14284, size: 0x8, addend: 0x0, symName: __ZNKSt3__114default_deleteINS_15__thread_structEEclB7v160006EPS1_, symObjAddr: 0x172C, symBinAddr: 0x100005034, symSize: 0x4C }
  - { offsetInCU: 0x91A1, offset: 0x142B6, size: 0x8, addend: 0x0, symName: '__ZNSt3__16threadC2IZN17ParallelMergeSort13recursiveSortEiiE3$_1JEvEEOT_DpOT0_', symObjAddr: 0x1778, symBinAddr: 0x100005080, symSize: 0x148 }
  - { offsetInCU: 0x921B, offset: 0x14330, size: 0x8, addend: 0x0, symName: '__ZNSt3__15tupleIJNS_10unique_ptrINS_15__thread_structENS_14default_deleteIS2_EEEEZN17ParallelMergeSort13recursiveSortEiiE3$_1EEC1B7v160006IJS5_S7_ELi0EEEDpOT_', symObjAddr: 0x18C0, symBinAddr: 0x1000051C8, symSize: 0x3C }
  - { offsetInCU: 0x930A, offset: 0x1441F, size: 0x8, addend: 0x0, symName: '__ZNSt3__110unique_ptrINS_5tupleIJNS0_INS_15__thread_structENS_14default_deleteIS2_EEEEZN17ParallelMergeSort13recursiveSortEiiE3$_1EEENS3_IS8_EEEC1B7v160006ILb1EvEEPS8_', symObjAddr: 0x18FC, symBinAddr: 0x100005204, symSize: 0x34 }
  - { offsetInCU: 0x934C, offset: 0x14461, size: 0x8, addend: 0x0, symName: '__ZNKSt3__110unique_ptrINS_5tupleIJNS0_INS_15__thread_structENS_14default_deleteIS2_EEEEZN17ParallelMergeSort13recursiveSortEiiE3$_1EEENS3_IS8_EEE3getB7v160006Ev', symObjAddr: 0x19C0, symBinAddr: 0x1000052C8, symSize: 0x28 }
  - { offsetInCU: 0x9370, offset: 0x14485, size: 0x8, addend: 0x0, symName: '__ZNSt3__110unique_ptrINS_5tupleIJNS0_INS_15__thread_structENS_14default_deleteIS2_EEEEZN17ParallelMergeSort13recursiveSortEiiE3$_1EEENS3_IS8_EEE7releaseB7v160006Ev', symObjAddr: 0x19E8, symBinAddr: 0x1000052F0, symSize: 0x44 }
  - { offsetInCU: 0x93A3, offset: 0x144B8, size: 0x8, addend: 0x0, symName: '__ZNSt3__110unique_ptrINS_5tupleIJNS0_INS_15__thread_structENS_14default_deleteIS2_EEEEZN17ParallelMergeSort13recursiveSortEiiE3$_1EEENS3_IS8_EEED1B7v160006Ev', symObjAddr: 0x1A2C, symBinAddr: 0x100005334, symSize: 0x2C }
  - { offsetInCU: 0x93CC, offset: 0x144E1, size: 0x8, addend: 0x0, symName: '__ZNSt3__15tupleIJNS_10unique_ptrINS_15__thread_structENS_14default_deleteIS2_EEEEZN17ParallelMergeSort13recursiveSortEiiE3$_1EEC2B7v160006IJS5_S7_ELi0EEEDpOT_', symObjAddr: 0x1A58, symBinAddr: 0x100005360, symSize: 0x3C }
  - { offsetInCU: 0x942A, offset: 0x1453F, size: 0x8, addend: 0x0, symName: '__ZNSt3__112__tuple_implINS_15__tuple_indicesIJLm0ELm1EEEEJNS_10unique_ptrINS_15__thread_structENS_14default_deleteIS4_EEEEZN17ParallelMergeSort13recursiveSortEiiE3$_1EEC1B7v160006IJLm0ELm1EEJS7_S9_EJEJEJS7_S9_EEENS1_IJXspT_EEEENS_13__tuple_typesIJDpT0_EEENS1_IJXspT1_EEEENSD_IJDpT2_EEEDpOT3_', symObjAddr: 0x1A94, symBinAddr: 0x10000539C, symSize: 0x3C }
  - { offsetInCU: 0x94DD, offset: 0x145F2, size: 0x8, addend: 0x0, symName: '__ZNSt3__112__tuple_implINS_15__tuple_indicesIJLm0ELm1EEEEJNS_10unique_ptrINS_15__thread_structENS_14default_deleteIS4_EEEEZN17ParallelMergeSort13recursiveSortEiiE3$_1EEC2B7v160006IJLm0ELm1EEJS7_S9_EJEJEJS7_S9_EEENS1_IJXspT_EEEENS_13__tuple_typesIJDpT0_EEENS1_IJXspT1_EEEENSD_IJDpT2_EEEDpOT3_', symObjAddr: 0x1AD0, symBinAddr: 0x1000053D8, symSize: 0x48 }
  - { offsetInCU: 0x9590, offset: 0x146A5, size: 0x8, addend: 0x0, symName: '__ZNSt3__112__tuple_leafILm1EZN17ParallelMergeSort13recursiveSortEiiE3$_1Lb0EEC2B7v160006IS2_vEEOT_', symObjAddr: 0x1B18, symBinAddr: 0x100005420, symSize: 0x24 }
  - { offsetInCU: 0x95D2, offset: 0x146E7, size: 0x8, addend: 0x0, symName: '__ZNSt3__110unique_ptrINS_5tupleIJNS0_INS_15__thread_structENS_14default_deleteIS2_EEEEZN17ParallelMergeSort13recursiveSortEiiE3$_1EEENS3_IS8_EEEC2B7v160006ILb1EvEEPS8_', symObjAddr: 0x1B3C, symBinAddr: 0x100005444, symSize: 0x44 }
  - { offsetInCU: 0x9614, offset: 0x14729, size: 0x8, addend: 0x0, symName: '__ZNSt3__117__compressed_pairIPNS_5tupleIJNS_10unique_ptrINS_15__thread_structENS_14default_deleteIS3_EEEEZN17ParallelMergeSort13recursiveSortEiiE3$_1EEENS4_IS9_EEEC1B7v160006IRSA_NS_16__value_init_tagEEEOT_OT0_', symObjAddr: 0x1B80, symBinAddr: 0x100005488, symSize: 0x3C }
  - { offsetInCU: 0x966B, offset: 0x14780, size: 0x8, addend: 0x0, symName: '__ZNSt3__117__compressed_pairIPNS_5tupleIJNS_10unique_ptrINS_15__thread_structENS_14default_deleteIS3_EEEEZN17ParallelMergeSort13recursiveSortEiiE3$_1EEENS4_IS9_EEEC2B7v160006IRSA_NS_16__value_init_tagEEEOT_OT0_', symObjAddr: 0x1BBC, symBinAddr: 0x1000054C4, symSize: 0x40 }
  - { offsetInCU: 0x96C2, offset: 0x147D7, size: 0x8, addend: 0x0, symName: '__ZNSt3__122__compressed_pair_elemIPNS_5tupleIJNS_10unique_ptrINS_15__thread_structENS_14default_deleteIS3_EEEEZN17ParallelMergeSort13recursiveSortEiiE3$_1EEELi0ELb0EEC2B7v160006IRSA_vEEOT_', symObjAddr: 0x1BFC, symBinAddr: 0x100005504, symSize: 0x24 }
  - { offsetInCU: 0x9703, offset: 0x14818, size: 0x8, addend: 0x0, symName: '__ZNSt3__122__compressed_pair_elemINS_14default_deleteINS_5tupleIJNS_10unique_ptrINS_15__thread_structENS1_IS4_EEEEZN17ParallelMergeSort13recursiveSortEiiE3$_1EEEEELi1ELb1EEC2B7v160006ENS_16__value_init_tagE', symObjAddr: 0x1C20, symBinAddr: 0x100005528, symSize: 0x14 }
  - { offsetInCU: 0x9737, offset: 0x1484C, size: 0x8, addend: 0x0, symName: '__ZZN17ParallelMergeSort13recursiveSortEiiENK3$_1clEv', symObjAddr: 0x1CCC, symBinAddr: 0x1000055D4, symSize: 0x34 }
  - { offsetInCU: 0x9760, offset: 0x14875, size: 0x8, addend: 0x0, symName: '__ZNSt3__112__tuple_leafILm1EZN17ParallelMergeSort13recursiveSortEiiE3$_1Lb0EE3getB7v160006Ev', symObjAddr: 0x1D00, symBinAddr: 0x100005608, symSize: 0x14 }
  - { offsetInCU: 0x9785, offset: 0x1489A, size: 0x8, addend: 0x0, symName: '__ZNKSt3__117__compressed_pairIPNS_5tupleIJNS_10unique_ptrINS_15__thread_structENS_14default_deleteIS3_EEEEZN17ParallelMergeSort13recursiveSortEiiE3$_1EEENS4_IS9_EEE5firstB7v160006Ev', symObjAddr: 0x1D14, symBinAddr: 0x10000561C, symSize: 0x24 }
  - { offsetInCU: 0x97A9, offset: 0x148BE, size: 0x8, addend: 0x0, symName: '__ZNKSt3__122__compressed_pair_elemIPNS_5tupleIJNS_10unique_ptrINS_15__thread_structENS_14default_deleteIS3_EEEEZN17ParallelMergeSort13recursiveSortEiiE3$_1EEELi0ELb0EE5__getB7v160006Ev', symObjAddr: 0x1D38, symBinAddr: 0x100005640, symSize: 0x14 }
  - { offsetInCU: 0x97CE, offset: 0x148E3, size: 0x8, addend: 0x0, symName: '__ZNSt3__117__compressed_pairIPNS_5tupleIJNS_10unique_ptrINS_15__thread_structENS_14default_deleteIS3_EEEEZN17ParallelMergeSort13recursiveSortEiiE3$_1EEENS4_IS9_EEE5firstB7v160006Ev', symObjAddr: 0x1D4C, symBinAddr: 0x100005654, symSize: 0x24 }
  - { offsetInCU: 0x97F2, offset: 0x14907, size: 0x8, addend: 0x0, symName: '__ZNSt3__122__compressed_pair_elemIPNS_5tupleIJNS_10unique_ptrINS_15__thread_structENS_14default_deleteIS3_EEEEZN17ParallelMergeSort13recursiveSortEiiE3$_1EEELi0ELb0EE5__getB7v160006Ev', symObjAddr: 0x1D70, symBinAddr: 0x100005678, symSize: 0x14 }
  - { offsetInCU: 0x9817, offset: 0x1492C, size: 0x8, addend: 0x0, symName: '__ZNSt3__110unique_ptrINS_5tupleIJNS0_INS_15__thread_structENS_14default_deleteIS2_EEEEZN17ParallelMergeSort13recursiveSortEiiE3$_1EEENS3_IS8_EEED2B7v160006Ev', symObjAddr: 0x1D84, symBinAddr: 0x10000568C, symSize: 0x30 }
  - { offsetInCU: 0x9840, offset: 0x14955, size: 0x8, addend: 0x0, symName: '__ZNSt3__110unique_ptrINS_5tupleIJNS0_INS_15__thread_structENS_14default_deleteIS2_EEEEZN17ParallelMergeSort13recursiveSortEiiE3$_1EEENS3_IS8_EEE5resetB7v160006EPS8_', symObjAddr: 0x1DB4, symBinAddr: 0x1000056BC, symSize: 0x78 }
  - { offsetInCU: 0x9882, offset: 0x14997, size: 0x8, addend: 0x0, symName: '__ZNSt3__117__compressed_pairIPNS_5tupleIJNS_10unique_ptrINS_15__thread_structENS_14default_deleteIS3_EEEEZN17ParallelMergeSort13recursiveSortEiiE3$_1EEENS4_IS9_EEE6secondB7v160006Ev', symObjAddr: 0x1E2C, symBinAddr: 0x100005734, symSize: 0x24 }
  - { offsetInCU: 0x98A6, offset: 0x149BB, size: 0x8, addend: 0x0, symName: '__ZNKSt3__114default_deleteINS_5tupleIJNS_10unique_ptrINS_15__thread_structENS0_IS3_EEEEZN17ParallelMergeSort13recursiveSortEiiE3$_1EEEEclB7v160006EPS8_', symObjAddr: 0x1E50, symBinAddr: 0x100005758, symSize: 0x4C }
  - { offsetInCU: 0x98D8, offset: 0x149ED, size: 0x8, addend: 0x0, symName: '__ZNSt3__122__compressed_pair_elemINS_14default_deleteINS_5tupleIJNS_10unique_ptrINS_15__thread_structENS1_IS4_EEEEZN17ParallelMergeSort13recursiveSortEiiE3$_1EEEEELi1ELb1EE5__getB7v160006Ev', symObjAddr: 0x1E9C, symBinAddr: 0x1000057A4, symSize: 0x14 }
  - { offsetInCU: 0x98FD, offset: 0x14A12, size: 0x8, addend: 0x0, symName: '__ZNSt3__15tupleIJNS_10unique_ptrINS_15__thread_structENS_14default_deleteIS2_EEEEZN17ParallelMergeSort13recursiveSortEiiE3$_1EED1Ev', symObjAddr: 0x1EB0, symBinAddr: 0x1000057B8, symSize: 0x2C }
  - { offsetInCU: 0x9929, offset: 0x14A3E, size: 0x8, addend: 0x0, symName: '__ZNSt3__15tupleIJNS_10unique_ptrINS_15__thread_structENS_14default_deleteIS2_EEEEZN17ParallelMergeSort13recursiveSortEiiE3$_1EED2Ev', symObjAddr: 0x1EDC, symBinAddr: 0x1000057E4, symSize: 0x2C }
  - { offsetInCU: 0x9955, offset: 0x14A6A, size: 0x8, addend: 0x0, symName: '__ZNSt3__112__tuple_implINS_15__tuple_indicesIJLm0ELm1EEEEJNS_10unique_ptrINS_15__thread_structENS_14default_deleteIS4_EEEEZN17ParallelMergeSort13recursiveSortEiiE3$_1EED1Ev', symObjAddr: 0x1F08, symBinAddr: 0x100005810, symSize: 0x2C }
  - { offsetInCU: 0x9981, offset: 0x14A96, size: 0x8, addend: 0x0, symName: '__ZNSt3__112__tuple_implINS_15__tuple_indicesIJLm0ELm1EEEEJNS_10unique_ptrINS_15__thread_structENS_14default_deleteIS4_EEEEZN17ParallelMergeSort13recursiveSortEiiE3$_1EED2Ev', symObjAddr: 0x1F34, symBinAddr: 0x10000583C, symSize: 0x2C }
  - { offsetInCU: 0x99AD, offset: 0x14AC2, size: 0x8, addend: 0x0, symName: __ZNSt3__16vectorIiNS_9allocatorIiEEEC2B7v160006Ev, symObjAddr: 0x1F60, symBinAddr: 0x100005868, symSize: 0x58 }
  - { offsetInCU: 0x99DB, offset: 0x14AF0, size: 0x8, addend: 0x0, symName: __ZNSt3__16vectorIiNS_9allocatorIiEEE22__construct_one_at_endB7v160006IJRKiEEEvDpOT_, symObjAddr: 0x261C, symBinAddr: 0x1000058C0, symSize: 0x90 }
  - { offsetInCU: 0x9A28, offset: 0x14B3D, size: 0x8, addend: 0x0, symName: __ZNSt3__16vectorIiNS_9allocatorIiEEE21__push_back_slow_pathIRKiEEvOT_, symObjAddr: 0x26AC, symBinAddr: 0x100005950, symSize: 0xD8 }
  - { offsetInCU: 0x9A9E, offset: 0x14BB3, size: 0x8, addend: 0x0, symName: __ZNSt3__116allocator_traitsINS_9allocatorIiEEE9constructB7v160006IiJRKiEvEEvRS2_PT_DpOT0_, symObjAddr: 0x27F8, symBinAddr: 0x100005A28, symSize: 0x34 }
  - { offsetInCU: 0x9AF5, offset: 0x14C0A, size: 0x8, addend: 0x0, symName: __ZNSt3__19allocatorIiE9constructB7v160006IiJRKiEEEvPT_DpOT0_, symObjAddr: 0x289C, symBinAddr: 0x100005A5C, symSize: 0x28 }
  - { offsetInCU: 0x9B4A, offset: 0x14C5F, size: 0x8, addend: 0x0, symName: __ZNKSt3__16vectorIiNS_9allocatorIiEEE11__recommendB7v160006Em, symObjAddr: 0x28E4, symBinAddr: 0x100005A84, symSize: 0xB4 }
  - { offsetInCU: 0x9B9E, offset: 0x14CB3, size: 0x8, addend: 0x0, symName: __ZNSt3__114__split_bufferIiRNS_9allocatorIiEEEC1EmmS3_, symObjAddr: 0x2998, symBinAddr: 0x100005B38, symSize: 0x44 }
  - { offsetInCU: 0x9BF3, offset: 0x14D08, size: 0x8, addend: 0x0, symName: __ZNSt3__114__split_bufferIiRNS_9allocatorIiEEED1Ev, symObjAddr: 0x2AF4, symBinAddr: 0x100005C94, symSize: 0x2C }
  - { offsetInCU: 0x9C32, offset: 0x14D47, size: 0x8, addend: 0x0, symName: __ZNSt3__114__split_bufferIiRNS_9allocatorIiEEEC2EmmS3_, symObjAddr: 0x2E68, symBinAddr: 0x100005D40, symSize: 0xD4 }
  - { offsetInCU: 0x9CA5, offset: 0x14DBA, size: 0x8, addend: 0x0, symName: __ZNSt3__117__compressed_pairIPiRNS_9allocatorIiEEEC1B7v160006IDnS4_EEOT_OT0_, symObjAddr: 0x2F3C, symBinAddr: 0x100005E14, symSize: 0x3C }
  - { offsetInCU: 0x9CFC, offset: 0x14E11, size: 0x8, addend: 0x0, symName: __ZNSt3__114__split_bufferIiRNS_9allocatorIiEEE7__allocB7v160006Ev, symObjAddr: 0x2FB8, symBinAddr: 0x100005E50, symSize: 0x28 }
  - { offsetInCU: 0x9D20, offset: 0x14E35, size: 0x8, addend: 0x0, symName: __ZNSt3__114__split_bufferIiRNS_9allocatorIiEEE9__end_capB7v160006Ev, symObjAddr: 0x2FE0, symBinAddr: 0x100005E78, symSize: 0x28 }
  - { offsetInCU: 0x9D44, offset: 0x14E59, size: 0x8, addend: 0x0, symName: __ZNSt3__117__compressed_pairIPiRNS_9allocatorIiEEEC2B7v160006IDnS4_EEOT_OT0_, symObjAddr: 0x3008, symBinAddr: 0x100005EA0, symSize: 0x48 }
  - { offsetInCU: 0x9D9B, offset: 0x14EB0, size: 0x8, addend: 0x0, symName: __ZNSt3__122__compressed_pair_elemIRNS_9allocatorIiEELi1ELb0EEC2B7v160006IS3_vEEOT_, symObjAddr: 0x3050, symBinAddr: 0x100005EE8, symSize: 0x20 }
  - { offsetInCU: 0x9DDC, offset: 0x14EF1, size: 0x8, addend: 0x0, symName: __ZNSt3__117__compressed_pairIPiRNS_9allocatorIiEEE6secondB7v160006Ev, symObjAddr: 0x3148, symBinAddr: 0x100005F08, symSize: 0x28 }
  - { offsetInCU: 0x9E00, offset: 0x14F15, size: 0x8, addend: 0x0, symName: __ZNSt3__122__compressed_pair_elemIRNS_9allocatorIiEELi1ELb0EE5__getB7v160006Ev, symObjAddr: 0x3170, symBinAddr: 0x100005F30, symSize: 0x18 }
  - { offsetInCU: 0x9E25, offset: 0x14F3A, size: 0x8, addend: 0x0, symName: __ZNSt3__117__compressed_pairIPiRNS_9allocatorIiEEE5firstB7v160006Ev, symObjAddr: 0x3188, symBinAddr: 0x100005F48, symSize: 0x24 }
  - { offsetInCU: 0x9E49, offset: 0x14F5E, size: 0x8, addend: 0x0, symName: __ZNSt3__116reverse_iteratorIPiEC1B7v160006ES1_, symObjAddr: 0x3224, symBinAddr: 0x100005FE4, symSize: 0x34 }
  - { offsetInCU: 0x9E80, offset: 0x14F95, size: 0x8, addend: 0x0, symName: __ZNKSt3__116reverse_iteratorIPiE4baseB7v160006Ev, symObjAddr: 0x3258, symBinAddr: 0x100006018, symSize: 0x18 }
  - { offsetInCU: 0x9EC8, offset: 0x14FDD, size: 0x8, addend: 0x0, symName: __ZNKSt3__111__move_loopINS_17_ClassicAlgPolicyEEclB7v160006INS_16reverse_iteratorIPiEES6_S6_EENS_4pairIT_T1_EES8_T0_S9_, symObjAddr: 0x3658, symBinAddr: 0x10000636C, symSize: 0xA0 }
  - { offsetInCU: 0x9F36, offset: 0x1504B, size: 0x8, addend: 0x0, symName: __ZNSt3__18_IterOpsINS_17_ClassicAlgPolicyEE11__iter_moveB7v160006IRNS_16reverse_iteratorIPiEEEENS_9enable_ifIXsr12is_referenceIDTdeclsr3stdE7declvalIRT_EEEEE5valueEDTclsr3stdE4movedeclsr3stdE7declvalISA_EEEEE4typeEOS9_, symObjAddr: 0x388C, symBinAddr: 0x1000065A0, symSize: 0x28 }
  - { offsetInCU: 0x9F62, offset: 0x15077, size: 0x8, addend: 0x0, symName: __ZNKSt3__116reverse_iteratorIPiEdeB7v160006Ev, symObjAddr: 0x38B4, symBinAddr: 0x1000065C8, symSize: 0x28 }
  - { offsetInCU: 0x9F96, offset: 0x150AB, size: 0x8, addend: 0x0, symName: __ZNSt3__116reverse_iteratorIPiEppB7v160006Ev, symObjAddr: 0x38DC, symBinAddr: 0x1000065F0, symSize: 0x20 }
  - { offsetInCU: 0x9FBB, offset: 0x150D0, size: 0x8, addend: 0x0, symName: __ZNSt3__18_IterOpsINS_17_ClassicAlgPolicyEE25__validate_iter_referenceB7v160006IRNS_16reverse_iteratorIPiEEEEvv, symObjAddr: 0x38FC, symBinAddr: 0x100006610, symSize: 0x4 }
  - { offsetInCU: 0x9FD9, offset: 0x150EE, size: 0x8, addend: 0x0, symName: __ZNSt3__118__unwrap_iter_implINS_16reverse_iteratorIPiEELb0EE8__unwrapB7v160006ES3_, symObjAddr: 0x3900, symBinAddr: 0x100006614, symSize: 0x24 }
  - { offsetInCU: 0xA001, offset: 0x15116, size: 0x8, addend: 0x0, symName: __ZNSt3__14pairINS_16reverse_iteratorIPiEES3_EC1B7v160006IS3_S3_LPv0EEEOT_OT0_, symObjAddr: 0x3924, symBinAddr: 0x100006638, symSize: 0x3C }
  - { offsetInCU: 0xA05E, offset: 0x15173, size: 0x8, addend: 0x0, symName: __ZNSt3__14pairINS_16reverse_iteratorIPiEES3_EC2B7v160006IS3_S3_LPv0EEEOT_OT0_, symObjAddr: 0x3960, symBinAddr: 0x100006674, symSize: 0x34 }
  - { offsetInCU: 0xA0BB, offset: 0x151D0, size: 0x8, addend: 0x0, symName: __ZNSt3__118__unwrap_iter_implINS_16reverse_iteratorIPiEELb0EE8__rewrapB7v160006ES3_S3_, symObjAddr: 0x3994, symBinAddr: 0x1000066A8, symSize: 0x2C }
  - { offsetInCU: 0xA0E9, offset: 0x151FE, size: 0x8, addend: 0x0, symName: __ZNSt3__116reverse_iteratorIPiEC2B7v160006ES1_, symObjAddr: 0x39C0, symBinAddr: 0x1000066D4, symSize: 0x28 }
  - { offsetInCU: 0xA120, offset: 0x15235, size: 0x8, addend: 0x0, symName: __ZNSt3__114__split_bufferIiRNS_9allocatorIiEEED2Ev, symObjAddr: 0x39E8, symBinAddr: 0x1000066FC, symSize: 0x8C }
  - { offsetInCU: 0xA14B, offset: 0x15260, size: 0x8, addend: 0x0, symName: __ZNSt3__114__split_bufferIiRNS_9allocatorIiEEE5clearB7v160006Ev, symObjAddr: 0x3A74, symBinAddr: 0x100006788, symSize: 0x28 }
  - { offsetInCU: 0xA16F, offset: 0x15284, size: 0x8, addend: 0x0, symName: __ZNKSt3__114__split_bufferIiRNS_9allocatorIiEEE8capacityB7v160006Ev, symObjAddr: 0x3A9C, symBinAddr: 0x1000067B0, symSize: 0x40 }
  - { offsetInCU: 0xA193, offset: 0x152A8, size: 0x8, addend: 0x0, symName: __ZNSt3__114__split_bufferIiRNS_9allocatorIiEEE17__destruct_at_endB7v160006EPi, symObjAddr: 0x3ADC, symBinAddr: 0x1000067F0, symSize: 0x2C }
  - { offsetInCU: 0xA1C5, offset: 0x152DA, size: 0x8, addend: 0x0, symName: __ZNSt3__114__split_bufferIiRNS_9allocatorIiEEE17__destruct_at_endB7v160006EPiNS_17integral_constantIbLb0EEE, symObjAddr: 0x3B08, symBinAddr: 0x10000681C, symSize: 0x80 }
  - { offsetInCU: 0xA205, offset: 0x1531A, size: 0x8, addend: 0x0, symName: __ZNKSt3__114__split_bufferIiRNS_9allocatorIiEEE9__end_capB7v160006Ev, symObjAddr: 0x3B88, symBinAddr: 0x10000689C, symSize: 0x28 }
  - { offsetInCU: 0xA229, offset: 0x1533E, size: 0x8, addend: 0x0, symName: __ZNKSt3__117__compressed_pairIPiRNS_9allocatorIiEEE5firstB7v160006Ev, symObjAddr: 0x3BB0, symBinAddr: 0x1000068C4, symSize: 0x24 }
  - { offsetInCU: 0xA24D, offset: 0x15362, size: 0x8, addend: 0x0, symName: '__ZNSt3__16threadC2IZN17ParallelMergeSort4sortEvE3$_2JEvEEOT_DpOT0_', symObjAddr: 0x3BD4, symBinAddr: 0x1000068E8, symSize: 0x148 }
  - { offsetInCU: 0xA2C7, offset: 0x153DC, size: 0x8, addend: 0x0, symName: '__ZNSt3__15tupleIJNS_10unique_ptrINS_15__thread_structENS_14default_deleteIS2_EEEEZN17ParallelMergeSort4sortEvE3$_2EEC1B7v160006IJS5_S7_ELi0EEEDpOT_', symObjAddr: 0x3D1C, symBinAddr: 0x100006A30, symSize: 0x3C }
  - { offsetInCU: 0xA3B6, offset: 0x154CB, size: 0x8, addend: 0x0, symName: '__ZNSt3__110unique_ptrINS_5tupleIJNS0_INS_15__thread_structENS_14default_deleteIS2_EEEEZN17ParallelMergeSort4sortEvE3$_2EEENS3_IS8_EEEC1B7v160006ILb1EvEEPS8_', symObjAddr: 0x3D58, symBinAddr: 0x100006A6C, symSize: 0x34 }
  - { offsetInCU: 0xA3F8, offset: 0x1550D, size: 0x8, addend: 0x0, symName: '__ZNKSt3__110unique_ptrINS_5tupleIJNS0_INS_15__thread_structENS_14default_deleteIS2_EEEEZN17ParallelMergeSort4sortEvE3$_2EEENS3_IS8_EEE3getB7v160006Ev', symObjAddr: 0x3E1C, symBinAddr: 0x100006B30, symSize: 0x28 }
  - { offsetInCU: 0xA41C, offset: 0x15531, size: 0x8, addend: 0x0, symName: '__ZNSt3__110unique_ptrINS_5tupleIJNS0_INS_15__thread_structENS_14default_deleteIS2_EEEEZN17ParallelMergeSort4sortEvE3$_2EEENS3_IS8_EEE7releaseB7v160006Ev', symObjAddr: 0x3E44, symBinAddr: 0x100006B58, symSize: 0x44 }
  - { offsetInCU: 0xA44F, offset: 0x15564, size: 0x8, addend: 0x0, symName: '__ZNSt3__110unique_ptrINS_5tupleIJNS0_INS_15__thread_structENS_14default_deleteIS2_EEEEZN17ParallelMergeSort4sortEvE3$_2EEENS3_IS8_EEED1B7v160006Ev', symObjAddr: 0x3E88, symBinAddr: 0x100006B9C, symSize: 0x2C }
  - { offsetInCU: 0xA478, offset: 0x1558D, size: 0x8, addend: 0x0, symName: '__ZNSt3__15tupleIJNS_10unique_ptrINS_15__thread_structENS_14default_deleteIS2_EEEEZN17ParallelMergeSort4sortEvE3$_2EEC2B7v160006IJS5_S7_ELi0EEEDpOT_', symObjAddr: 0x3EB4, symBinAddr: 0x100006BC8, symSize: 0x3C }
  - { offsetInCU: 0xA4D6, offset: 0x155EB, size: 0x8, addend: 0x0, symName: '__ZNSt3__112__tuple_implINS_15__tuple_indicesIJLm0ELm1EEEEJNS_10unique_ptrINS_15__thread_structENS_14default_deleteIS4_EEEEZN17ParallelMergeSort4sortEvE3$_2EEC1B7v160006IJLm0ELm1EEJS7_S9_EJEJEJS7_S9_EEENS1_IJXspT_EEEENS_13__tuple_typesIJDpT0_EEENS1_IJXspT1_EEEENSD_IJDpT2_EEEDpOT3_', symObjAddr: 0x3EF0, symBinAddr: 0x100006C04, symSize: 0x3C }
  - { offsetInCU: 0xA589, offset: 0x1569E, size: 0x8, addend: 0x0, symName: '__ZNSt3__112__tuple_implINS_15__tuple_indicesIJLm0ELm1EEEEJNS_10unique_ptrINS_15__thread_structENS_14default_deleteIS4_EEEEZN17ParallelMergeSort4sortEvE3$_2EEC2B7v160006IJLm0ELm1EEJS7_S9_EJEJEJS7_S9_EEENS1_IJXspT_EEEENS_13__tuple_typesIJDpT0_EEENS1_IJXspT1_EEEENSD_IJDpT2_EEEDpOT3_', symObjAddr: 0x3F2C, symBinAddr: 0x100006C40, symSize: 0x48 }
  - { offsetInCU: 0xA63C, offset: 0x15751, size: 0x8, addend: 0x0, symName: '__ZNSt3__112__tuple_leafILm1EZN17ParallelMergeSort4sortEvE3$_2Lb0EEC2B7v160006IS2_vEEOT_', symObjAddr: 0x3F74, symBinAddr: 0x100006C88, symSize: 0x24 }
  - { offsetInCU: 0xA67E, offset: 0x15793, size: 0x8, addend: 0x0, symName: '__ZNSt3__110unique_ptrINS_5tupleIJNS0_INS_15__thread_structENS_14default_deleteIS2_EEEEZN17ParallelMergeSort4sortEvE3$_2EEENS3_IS8_EEEC2B7v160006ILb1EvEEPS8_', symObjAddr: 0x3F98, symBinAddr: 0x100006CAC, symSize: 0x44 }
  - { offsetInCU: 0xA6C0, offset: 0x157D5, size: 0x8, addend: 0x0, symName: '__ZNSt3__117__compressed_pairIPNS_5tupleIJNS_10unique_ptrINS_15__thread_structENS_14default_deleteIS3_EEEEZN17ParallelMergeSort4sortEvE3$_2EEENS4_IS9_EEEC1B7v160006IRSA_NS_16__value_init_tagEEEOT_OT0_', symObjAddr: 0x3FDC, symBinAddr: 0x100006CF0, symSize: 0x3C }
  - { offsetInCU: 0xA717, offset: 0x1582C, size: 0x8, addend: 0x0, symName: '__ZNSt3__117__compressed_pairIPNS_5tupleIJNS_10unique_ptrINS_15__thread_structENS_14default_deleteIS3_EEEEZN17ParallelMergeSort4sortEvE3$_2EEENS4_IS9_EEEC2B7v160006IRSA_NS_16__value_init_tagEEEOT_OT0_', symObjAddr: 0x4018, symBinAddr: 0x100006D2C, symSize: 0x40 }
  - { offsetInCU: 0xA76E, offset: 0x15883, size: 0x8, addend: 0x0, symName: '__ZNSt3__122__compressed_pair_elemIPNS_5tupleIJNS_10unique_ptrINS_15__thread_structENS_14default_deleteIS3_EEEEZN17ParallelMergeSort4sortEvE3$_2EEELi0ELb0EEC2B7v160006IRSA_vEEOT_', symObjAddr: 0x4058, symBinAddr: 0x100006D6C, symSize: 0x24 }
  - { offsetInCU: 0xA7AF, offset: 0x158C4, size: 0x8, addend: 0x0, symName: '__ZNSt3__122__compressed_pair_elemINS_14default_deleteINS_5tupleIJNS_10unique_ptrINS_15__thread_structENS1_IS4_EEEEZN17ParallelMergeSort4sortEvE3$_2EEEEELi1ELb1EEC2B7v160006ENS_16__value_init_tagE', symObjAddr: 0x407C, symBinAddr: 0x100006D90, symSize: 0x14 }
  - { offsetInCU: 0xA7E3, offset: 0x158F8, size: 0x8, addend: 0x0, symName: '__ZZN17ParallelMergeSort4sortEvENK3$_2clEv', symObjAddr: 0x4128, symBinAddr: 0x100006E3C, symSize: 0x48 }
  - { offsetInCU: 0xA80C, offset: 0x15921, size: 0x8, addend: 0x0, symName: '__ZNSt3__112__tuple_leafILm1EZN17ParallelMergeSort4sortEvE3$_2Lb0EE3getB7v160006Ev', symObjAddr: 0x4170, symBinAddr: 0x100006E84, symSize: 0x14 }
  - { offsetInCU: 0xA831, offset: 0x15946, size: 0x8, addend: 0x0, symName: '__ZNKSt3__117__compressed_pairIPNS_5tupleIJNS_10unique_ptrINS_15__thread_structENS_14default_deleteIS3_EEEEZN17ParallelMergeSort4sortEvE3$_2EEENS4_IS9_EEE5firstB7v160006Ev', symObjAddr: 0x4184, symBinAddr: 0x100006E98, symSize: 0x24 }
  - { offsetInCU: 0xA855, offset: 0x1596A, size: 0x8, addend: 0x0, symName: '__ZNKSt3__122__compressed_pair_elemIPNS_5tupleIJNS_10unique_ptrINS_15__thread_structENS_14default_deleteIS3_EEEEZN17ParallelMergeSort4sortEvE3$_2EEELi0ELb0EE5__getB7v160006Ev', symObjAddr: 0x41A8, symBinAddr: 0x100006EBC, symSize: 0x14 }
  - { offsetInCU: 0xA87A, offset: 0x1598F, size: 0x8, addend: 0x0, symName: '__ZNSt3__117__compressed_pairIPNS_5tupleIJNS_10unique_ptrINS_15__thread_structENS_14default_deleteIS3_EEEEZN17ParallelMergeSort4sortEvE3$_2EEENS4_IS9_EEE5firstB7v160006Ev', symObjAddr: 0x41BC, symBinAddr: 0x100006ED0, symSize: 0x24 }
  - { offsetInCU: 0xA89E, offset: 0x159B3, size: 0x8, addend: 0x0, symName: '__ZNSt3__122__compressed_pair_elemIPNS_5tupleIJNS_10unique_ptrINS_15__thread_structENS_14default_deleteIS3_EEEEZN17ParallelMergeSort4sortEvE3$_2EEELi0ELb0EE5__getB7v160006Ev', symObjAddr: 0x41E0, symBinAddr: 0x100006EF4, symSize: 0x14 }
  - { offsetInCU: 0xA8C3, offset: 0x159D8, size: 0x8, addend: 0x0, symName: '__ZNSt3__110unique_ptrINS_5tupleIJNS0_INS_15__thread_structENS_14default_deleteIS2_EEEEZN17ParallelMergeSort4sortEvE3$_2EEENS3_IS8_EEED2B7v160006Ev', symObjAddr: 0x41F4, symBinAddr: 0x100006F08, symSize: 0x30 }
  - { offsetInCU: 0xA8EC, offset: 0x15A01, size: 0x8, addend: 0x0, symName: '__ZNSt3__110unique_ptrINS_5tupleIJNS0_INS_15__thread_structENS_14default_deleteIS2_EEEEZN17ParallelMergeSort4sortEvE3$_2EEENS3_IS8_EEE5resetB7v160006EPS8_', symObjAddr: 0x4224, symBinAddr: 0x100006F38, symSize: 0x78 }
  - { offsetInCU: 0xA92E, offset: 0x15A43, size: 0x8, addend: 0x0, symName: '__ZNSt3__117__compressed_pairIPNS_5tupleIJNS_10unique_ptrINS_15__thread_structENS_14default_deleteIS3_EEEEZN17ParallelMergeSort4sortEvE3$_2EEENS4_IS9_EEE6secondB7v160006Ev', symObjAddr: 0x429C, symBinAddr: 0x100006FB0, symSize: 0x24 }
  - { offsetInCU: 0xA952, offset: 0x15A67, size: 0x8, addend: 0x0, symName: '__ZNKSt3__114default_deleteINS_5tupleIJNS_10unique_ptrINS_15__thread_structENS0_IS3_EEEEZN17ParallelMergeSort4sortEvE3$_2EEEEclB7v160006EPS8_', symObjAddr: 0x42C0, symBinAddr: 0x100006FD4, symSize: 0x4C }
  - { offsetInCU: 0xA984, offset: 0x15A99, size: 0x8, addend: 0x0, symName: '__ZNSt3__122__compressed_pair_elemINS_14default_deleteINS_5tupleIJNS_10unique_ptrINS_15__thread_structENS1_IS4_EEEEZN17ParallelMergeSort4sortEvE3$_2EEEEELi1ELb1EE5__getB7v160006Ev', symObjAddr: 0x430C, symBinAddr: 0x100007020, symSize: 0x14 }
  - { offsetInCU: 0xA9A9, offset: 0x15ABE, size: 0x8, addend: 0x0, symName: '__ZNSt3__15tupleIJNS_10unique_ptrINS_15__thread_structENS_14default_deleteIS2_EEEEZN17ParallelMergeSort4sortEvE3$_2EED1Ev', symObjAddr: 0x4320, symBinAddr: 0x100007034, symSize: 0x2C }
  - { offsetInCU: 0xA9D5, offset: 0x15AEA, size: 0x8, addend: 0x0, symName: '__ZNSt3__15tupleIJNS_10unique_ptrINS_15__thread_structENS_14default_deleteIS2_EEEEZN17ParallelMergeSort4sortEvE3$_2EED2Ev', symObjAddr: 0x434C, symBinAddr: 0x100007060, symSize: 0x2C }
  - { offsetInCU: 0xAA01, offset: 0x15B16, size: 0x8, addend: 0x0, symName: '__ZNSt3__112__tuple_implINS_15__tuple_indicesIJLm0ELm1EEEEJNS_10unique_ptrINS_15__thread_structENS_14default_deleteIS4_EEEEZN17ParallelMergeSort4sortEvE3$_2EED1Ev', symObjAddr: 0x4378, symBinAddr: 0x10000708C, symSize: 0x2C }
  - { offsetInCU: 0xAA2D, offset: 0x15B42, size: 0x8, addend: 0x0, symName: '__ZNSt3__112__tuple_implINS_15__tuple_indicesIJLm0ELm1EEEEJNS_10unique_ptrINS_15__thread_structENS_14default_deleteIS4_EEEEZN17ParallelMergeSort4sortEvE3$_2EED2Ev', symObjAddr: 0x43A4, symBinAddr: 0x1000070B8, symSize: 0x2C }
  - { offsetInCU: 0x3511, offset: 0x19180, size: 0x8, addend: 0x0, symName: __ZN9MergeSortC2EPNSt3__16vectorIiNS0_9allocatorIiEEEE, symObjAddr: 0x0, symBinAddr: 0x1000070E4, symSize: 0x20 }
  - { offsetInCU: 0x354A, offset: 0x191B9, size: 0x8, addend: 0x0, symName: __ZN9MergeSortC1EPNSt3__16vectorIiNS0_9allocatorIiEEEE, symObjAddr: 0x20, symBinAddr: 0x100007104, symSize: 0x34 }
  - { offsetInCU: 0x3583, offset: 0x191F2, size: 0x8, addend: 0x0, symName: __ZN9MergeSortD2Ev, symObjAddr: 0x54, symBinAddr: 0x100007138, symSize: 0x14 }
  - { offsetInCU: 0x35AE, offset: 0x1921D, size: 0x8, addend: 0x0, symName: __ZN9MergeSortD1Ev, symObjAddr: 0x68, symBinAddr: 0x10000714C, symSize: 0x2C }
  - { offsetInCU: 0x35D9, offset: 0x19248, size: 0x8, addend: 0x0, symName: __ZN9MergeSort13recursiveSortEii, symObjAddr: 0x94, symBinAddr: 0x100007178, symSize: 0x2D4 }
  - { offsetInCU: 0x3676, offset: 0x192E5, size: 0x8, addend: 0x0, symName: __ZN9MergeSort4sortEv, symObjAddr: 0x478, symBinAddr: 0x10000744C, symSize: 0x68 }
...
